
monitorInvernadero.elf:     file format elf32-avr

Sections:
Idx Name          Size      VMA       LMA       File off  Algn
  0 .data         00000000  00800100  00800100  00003372  2**0
                  ALLOC, LOAD, DATA, KEEP
  1 .text         000000da  00000000  00000000  00000114  2**1
                  CONTENTS, ALLOC, LOAD, READONLY, CODE, KEEP
  2 .bss          000001e4  00800100  00800100  00003372  2**0
                  ALLOC
  3 .comment      0000005b  00000000  00000000  00003372  2**0
                  CONTENTS, READONLY
  4 .stack.descriptors.hdr 000002a0  00000000  00000000  000033cd  2**0
                  CONTENTS, READONLY
  5 .debug_aranges 00000140  00000000  00000000  0000366d  2**0
                  CONTENTS, READONLY, DEBUGGING
  6 .debug_info   00001f70  00000000  00000000  000037ad  2**0
                  CONTENTS, READONLY, DEBUGGING
  7 .debug_abbrev 00000aa0  00000000  00000000  0000571d  2**0
                  CONTENTS, READONLY, DEBUGGING
  8 .debug_line   00000abd  00000000  00000000  000061bd  2**0
                  CONTENTS, READONLY, DEBUGGING
  9 .debug_frame  00000390  00000000  00000000  00006c7c  2**2
                  CONTENTS, READONLY, DEBUGGING
 10 .debug_str    00000244  00000000  00000000  0000700c  2**0
                  CONTENTS, READONLY, DEBUGGING
 11 .debug_loc    00000a5d  00000000  00000000  00007250  2**0
                  CONTENTS, READONLY, DEBUGGING
 12 .debug_ranges 000000e0  00000000  00000000  00007cad  2**0
                  CONTENTS, READONLY, DEBUGGING
 13 .text         00000004  0000324c  0000324c  00003360  2**1
                  CONTENTS, ALLOC, LOAD, READONLY, CODE
 14 .note.gnu.avr.deviceinfo 00000040  00000000  00000000  00007d90  2**2
                  CONTENTS, READONLY, DEBUGGING
 15 .text.DHT11_iniciar 00000040  00002ddc  00002ddc  00002ef0  2**1
                  CONTENTS, ALLOC, LOAD, READONLY, CODE
 16 .text.DHT11_recibir 00000040  00002e1c  00002e1c  00002f30  2**1
                  CONTENTS, ALLOC, LOAD, READONLY, CODE
 17 .text.__vector_4 0000011e  00001a12  00001a12  00001b26  2**1
                  CONTENTS, ALLOC, LOAD, READONLY, CODE
 18 .bss.datos    00000005  008002e4  008002e4  00003372  2**0
                  ALLOC
 19 .data.bit_actual 00000001  008002ed  0000325c  00003370  2**0
                  CONTENTS, ALLOC, LOAD, DATA
 20 .text.decimal_to_bcd 00000026  00003044  00003044  00003158  2**1
                  CONTENTS, ALLOC, LOAD, READONLY, CODE
 21 .text.bcd_to_decimal 00000016  00003146  00003146  0000325a  2**1
                  CONTENTS, ALLOC, LOAD, READONLY, CODE
 22 .text.rtc_get_time 00000082  00002714  00002714  00002828  2**1
                  CONTENTS, ALLOC, LOAD, READONLY, CODE
 23 .text.rtc_set_time 00000046  00002cc6  00002cc6  00002dda  2**1
                  CONTENTS, ALLOC, LOAD, READONLY, CODE
 24 .text.i2c_init 00000012  0000319a  0000319a  000032ae  2**1
                  CONTENTS, ALLOC, LOAD, READONLY, CODE
 25 .text.i2c_start 00000010  00003206  00003206  0000331a  2**1
                  CONTENTS, ALLOC, LOAD, READONLY, CODE
 26 .text.i2c_read 00000020  000030b4  000030b4  000031c8  2**1
                  CONTENTS, ALLOC, LOAD, READONLY, CODE
 27 .text.i2c_write 00000014  00003172  00003172  00003286  2**1
                  CONTENTS, ALLOC, LOAD, READONLY, CODE
 28 .text.i2c_stop 00000008  0000323e  0000323e  00003352  2**1
                  CONTENTS, ALLOC, LOAD, READONLY, CODE
 29 .progmemx.data 000000e3  000000da  000000da  000001ee  2**0
                  CONTENTS, ALLOC, LOAD, READONLY, PROGMEMX
 30 .text.validar_set_time 000000ca  00001f66  00001f66  0000207a  2**1
                  CONTENTS, ALLOC, LOAD, READONLY, CODE
 31 .text.validar_set_tm 0000006e  0000297a  0000297a  00002a8e  2**1
                  CONTENTS, ALLOC, LOAD, READONLY, CODE
 32 .text.evaluar_condiciones 0000005e  00002b22  00002b22  00002c36  2**1
                  CONTENTS, ALLOC, LOAD, READONLY, CODE
 33 .text.main    0000027c  00001152  00001152  00001266  2**1
                  CONTENTS, ALLOC, LOAD, READONLY, CODE
 34 .data.seg     00000001  008002ee  0000325d  00003371  2**0
                  CONTENTS, ALLOC, LOAD, DATA
 35 .data.intervalo_T 00000002  008002e9  0000325a  0000336e  2**0
                  CONTENTS, ALLOC, LOAD, DATA
 36 .bss.cant_alertas 00000001  008002ef  008002ef  00003372  2**0
                  ALLOC
 37 .bss.enviar_alerta 00000001  008002f0  008002f0  00003372  2**0
                  ALLOC
 38 .bss.error_tx_lleno 00000001  008002f1  008002f1  00003372  2**0
                  ALLOC
 39 .bss.error_buffer_lleno 00000001  008002f2  008002f2  00003372  2**0
                  ALLOC
 40 .bss.string_recibido_flag 00000001  008002f3  008002f3  00003372  2**0
                  ALLOC
 41 .bss.espera_30ms 00000001  008002f4  008002f4  00003372  2**0
                  ALLOC
 42 .bss.flag_timer1 00000001  008002f5  008002f5  00003372  2**0
                  ALLOC
 43 .bss.flag_dht_listo 00000001  008002f6  008002f6  00003372  2**0
                  ALLOC
 44 .bss.flag_error_sensor 00000001  008002f7  008002f7  00003372  2**0
                  ALLOC
 45 .text.timer1_init 00000024  00003090  00003090  000031a4  2**1
                  CONTENTS, ALLOC, LOAD, READONLY, CODE
 46 .text.__vector_11 00000094  00002560  00002560  00002674  2**1
                  CONTENTS, ALLOC, LOAD, READONLY, CODE
 47 .bss.cont_ms  00000002  008002eb  008002eb  00003372  2**0
                  ALLOC
 48 .text.uart0_init 00000014  00003186  00003186  0000329a  2**1
                  CONTENTS, ALLOC, LOAD, READONLY, CODE
 49 .text.uart0_sendString 0000002e  00002f9a  00002f9a  000030ae  2**1
                  CONTENTS, ALLOC, LOAD, READONLY, CODE
 50 .text.__vector_18 0000007e  00002796  00002796  000028aa  2**1
                  CONTENTS, ALLOC, LOAD, READONLY, CODE
 51 .text.__vector_19 0000005e  00002b80  00002b80  00002c94  2**1
                  CONTENTS, ALLOC, LOAD, READONLY, CODE
 52 .bss.tx_index 00000001  008002f8  008002f8  00003372  2**0
                  ALLOC
 53 .bss.rx_index 00000001  008002f9  008002f9  00003372  2**0
                  ALLOC
 54 .text.__dummy_fini 00000002  00003254  00003254  00003368  2**1
                  CONTENTS, ALLOC, LOAD, READONLY, CODE, KEEP
 55 .text.__dummy_funcs_on_exit 00000002  00003256  00003256  0000336a  2**1
                  CONTENTS, ALLOC, LOAD, READONLY, CODE
 56 .text.__dummy_simulator_exit 00000002  00003258  00003258  0000336c  2**1
                  CONTENTS, ALLOC, LOAD, READONLY, CODE
 57 .text.exit    00000016  0000315c  0000315c  00003270  2**1
                  CONTENTS, ALLOC, LOAD, READONLY, CODE
 58 .text.__wrap_sprintf 00000026  0000306a  0000306a  0000317e  2**1
                  CONTENTS, ALLOC, LOAD, READONLY, CODE
 59 .text.__wrap_sscanf 00000046  00002d0c  00002d0c  00002e20  2**1
                  CONTENTS, ALLOC, LOAD, READONLY, CODE
 60 .text.__fmt_d 000000e6  00001b30  00001b30  00001c44  2**1
                  CONTENTS, ALLOC, LOAD, READONLY, CODE
 61 .text.__fmt_o 000000b4  000020fa  000020fa  0000220e  2**1
                  CONTENTS, ALLOC, LOAD, READONLY, CODE
 62 .text.__fmt_s 0000007a  00002814  00002814  00002928  2**1
                  CONTENTS, ALLOC, LOAD, READONLY, CODE
 63 .progmemx.data.nuls.2781 00000007  000001d3  000001d3  000002e7  2**0
                  CONTENTS, ALLOC, LOAD, READONLY, PROGMEMX
 64 .text.__cvt_u 000000ca  00002030  00002030  00002144  2**1
                  CONTENTS, ALLOC, LOAD, READONLY, CODE
 65 .text.__fmt_u 00000090  000025f4  000025f4  00002708  2**1
                  CONTENTS, ALLOC, LOAD, READONLY, CODE
 66 .text.__fmt_x 000001da  000015b4  000015b4  000016c8  2**1
                  CONTENTS, ALLOC, LOAD, READONLY, CODE
 67 .text.__pop_int 000000da  00001c16  00001c16  00001d2a  2**1
                  CONTENTS, ALLOC, LOAD, READONLY, CODE
 68 .text.read_prec_or_width 00000078  0000288e  0000288e  000029a2  2**1
                  CONTENTS, ALLOC, LOAD, READONLY, CODE
 69 .text.__out   00000068  00002a52  00002a52  00002b66  2**1
                  CONTENTS, ALLOC, LOAD, READONLY, CODE
 70 .text.__pad   00000096  000024ca  000024ca  000025de  2**1
                  CONTENTS, ALLOC, LOAD, READONLY, CODE
 71 .text.__fmt_state 0000009e  00002394  00002394  000024a8  2**1
                  CONTENTS, ALLOC, LOAD, READONLY, CODE
 72 .text.vfpfcnvrt 000004d8  00000868  00000868  0000097c  2**1
                  CONTENTS, ALLOC, LOAD, READONLY, CODE
 73 .text.__printf_core 00000074  00002906  00002906  00002a1a  2**1
                  CONTENTS, ALLOC, LOAD, READONLY, CODE
 74 .progmemx.data.nilstr.2962 00000006  000001da  000001da  000002ee  2**0
                  CONTENTS, ALLOC, LOAD, READONLY, PROGMEMX
 75 .progmemx.data.state_table 00000016  000001bd  000001bd  000002d1  2**0
                  CONTENTS, ALLOC, LOAD, READONLY, PROGMEMX
 76 .text.__read_int 000000d4  00001dc6  00001dc6  00001eda  2**1
                  CONTENTS, ALLOC, LOAD, READONLY, CODE
 77 .text.__scan_d 0000004e  00002bde  00002bde  00002cf2  2**1
                  CONTENTS, ALLOC, LOAD, READONLY, CODE
 78 .text.__scan_i 000001e6  000013ce  000013ce  000014e2  2**1
                  CONTENTS, ALLOC, LOAD, READONLY, CODE
 79 .text.__scan_o 000000d6  00001cf0  00001cf0  00001e04  2**1
                  CONTENTS, ALLOC, LOAD, READONLY, CODE
 80 .text.__scan_s 000000cc  00001e9a  00001e9a  00001fae  2**1
                  CONTENTS, ALLOC, LOAD, READONLY, CODE
 81 .text.__scan_u 0000004e  00002c2c  00002c2c  00002d40  2**1
                  CONTENTS, ALLOC, LOAD, READONLY, CODE
 82 .text.__scan_x 0000014e  0000178e  0000178e  000018a2  2**1
                  CONTENTS, ALLOC, LOAD, READONLY, CODE
 83 .text.__skipws 00000046  00002d52  00002d52  00002e66  2**1
                  CONTENTS, ALLOC, LOAD, READONLY, CODE
 84 .text.__consumews 00000068  00002aba  00002aba  00002bce  2**1
                  CONTENTS, ALLOC, LOAD, READONLY, CODE
 85 .text.__dummy_scan 00000006  00003246  00003246  0000335a  2**1
                  CONTENTS, ALLOC, LOAD, READONLY, CODE
 86 .text.__scanf_core 00000688  000001e0  000001e0  000002f4  2**1
                  CONTENTS, ALLOC, LOAD, READONLY, CODE
 87 .text.fgetc   000000a2  00002252  00002252  00002366  2**1
                  CONTENTS, ALLOC, LOAD, READONLY, CODE
 88 .text.ungetc  0000003e  00002e5c  00002e5c  00002f70  2**1
                  CONTENTS, ALLOC, LOAD, READONLY, CODE
 89 .text.fputc   00000098  00002432  00002432  00002546  2**1
                  CONTENTS, ALLOC, LOAD, READONLY, CODE
 90 .text.__push_float 0000006a  000029e8  000029e8  00002afc  2**1
                  CONTENTS, ALLOC, LOAD, READONLY, CODE
 91 .text.__push_int 00000136  000018dc  000018dc  000019f0  2**1
                  CONTENTS, ALLOC, LOAD, READONLY, CODE
 92 .text.atoi    00000090  00002684  00002684  00002798  2**1
                  CONTENTS, ALLOC, LOAD, READONLY, CODE
 93 .text.strtoll 0000000c  00003226  00003226  0000333a  2**1
                  CONTENTS, ALLOC, LOAD, READONLY, CODE
 94 .text.strtoull 0000000c  00003232  00003232  00003346  2**1
                  CONTENTS, ALLOC, LOAD, READONLY, CODE
 95 .text.memcpy  00000032  00002f08  00002f08  0000301c  2**1
                  CONTENTS, ALLOC, LOAD, READONLY, CODE
 96 .text.memset  00000012  000031ac  000031ac  000032c0  2**1
                  CONTENTS, ALLOC, LOAD, READONLY, CODE
 97 .text.strcpy  0000001c  00003112  00003112  00003226  2**1
                  CONTENTS, ALLOC, LOAD, READONLY, CODE
 98 .text.strlen  0000002c  00002fc8  00002fc8  000030dc  2**1
                  CONTENTS, ALLOC, LOAD, READONLY, CODE
 99 .text.strncpy 0000004c  00002c7a  00002c7a  00002d8e  2**1
                  CONTENTS, ALLOC, LOAD, READONLY, CODE
100 .text.isxdigit 00000028  00002ff4  00002ff4  00003108  2**1
                  CONTENTS, ALLOC, LOAD, READONLY, CODE
101 .text.tolower 00000010  00003216  00003216  0000332a  2**1
                  CONTENTS, ALLOC, LOAD, READONLY, CODE
102 .text.toupper 00000012  000031be  000031be  000032d2  2**1
                  CONTENTS, ALLOC, LOAD, READONLY, CODE
103 .text._Exit   00000004  00003250  00003250  00003364  2**1
                  CONTENTS, ALLOC, LOAD, READONLY, CODE
104 .text.__vfscanf 00000030  00002f3a  00002f3a  0000304e  2**1
                  CONTENTS, ALLOC, LOAD, READONLY, CODE
105 .text.__vsprintf 00000018  0000312e  0000312e  00003242  2**1
                  CONTENTS, ALLOC, LOAD, READONLY, CODE
106 .text.__vsnprintf 000000a4  000021ae  000021ae  000022c2  2**1
                  CONTENTS, ALLOC, LOAD, READONLY, CODE
107 .text.__strtoxll 00000412  00000d40  00000d40  00000e54  2**1
                  CONTENTS, ALLOC, LOAD, READONLY, CODE
108 .text.isalnum 00000028  0000301c  0000301c  00003130  2**1
                  CONTENTS, ALLOC, LOAD, READONLY, CODE
109 .text.__vfprintf 00000030  00002f6a  00002f6a  0000307e  2**1
                  CONTENTS, ALLOC, LOAD, READONLY, CODE
110 .text.libgcc.div 00000044  00002d98  00002d98  00002eac  2**1
                  CONTENTS, ALLOC, LOAD, READONLY, CODE
111 .text.libgcc.mul 000000a0  000022f4  000022f4  00002408  2**1
                  CONTENTS, ALLOC, LOAD, READONLY, CODE
112 .text.libgcc.mul 00000012  000031d0  000031d0  000032e4  2**1
                  CONTENTS, ALLOC, LOAD, READONLY, CODE
113 .text.libgcc  00000020  000030d4  000030d4  000031e8  2**1
                  CONTENTS, ALLOC, LOAD, READONLY, CODE
114 .text.libgcc.prologue 00000038  00002e9a  00002e9a  00002fae  2**1
                  CONTENTS, ALLOC, LOAD, READONLY, CODE
115 .text.libgcc.prologue 00000036  00002ed2  00002ed2  00002fe6  2**1
                  CONTENTS, ALLOC, LOAD, READONLY, CODE
116 .text.libgcc  00000012  000031e2  000031e2  000032f6  2**1
                  CONTENTS, ALLOC, LOAD, READONLY, CODE
117 .text.libgcc  00000012  000031f4  000031f4  00003308  2**1
                  CONTENTS, ALLOC, LOAD, READONLY, CODE
118 .text.libgcc.mul 0000001e  000030f4  000030f4  00003208  2**1
                  CONTENTS, ALLOC, LOAD, READONLY, CODE

Disassembly of section .text:

00000000 <__vectors>:
   0:	0c 94 43 00 	jmp	0x86	; 0x86 <__ctors_end>
   4:	0c 94 26 19 	jmp	0x324c	; 0x324c <__bad_interrupt>
   8:	0c 94 26 19 	jmp	0x324c	; 0x324c <__bad_interrupt>
   c:	0c 94 26 19 	jmp	0x324c	; 0x324c <__bad_interrupt>
  10:	0c 94 09 0d 	jmp	0x1a12	; 0x1a12 <__vector_4>
  14:	0c 94 26 19 	jmp	0x324c	; 0x324c <__bad_interrupt>
  18:	0c 94 26 19 	jmp	0x324c	; 0x324c <__bad_interrupt>
  1c:	0c 94 26 19 	jmp	0x324c	; 0x324c <__bad_interrupt>
  20:	0c 94 26 19 	jmp	0x324c	; 0x324c <__bad_interrupt>
  24:	0c 94 26 19 	jmp	0x324c	; 0x324c <__bad_interrupt>
  28:	0c 94 26 19 	jmp	0x324c	; 0x324c <__bad_interrupt>
  2c:	0c 94 b0 12 	jmp	0x2560	; 0x2560 <__vector_11>
  30:	0c 94 26 19 	jmp	0x324c	; 0x324c <__bad_interrupt>
  34:	0c 94 26 19 	jmp	0x324c	; 0x324c <__bad_interrupt>
  38:	0c 94 26 19 	jmp	0x324c	; 0x324c <__bad_interrupt>
  3c:	0c 94 26 19 	jmp	0x324c	; 0x324c <__bad_interrupt>
  40:	0c 94 26 19 	jmp	0x324c	; 0x324c <__bad_interrupt>
  44:	0c 94 26 19 	jmp	0x324c	; 0x324c <__bad_interrupt>
  48:	0c 94 cb 13 	jmp	0x2796	; 0x2796 <__vector_18>
  4c:	0c 94 c0 15 	jmp	0x2b80	; 0x2b80 <__vector_19>
  50:	0c 94 26 19 	jmp	0x324c	; 0x324c <__bad_interrupt>
  54:	0c 94 26 19 	jmp	0x324c	; 0x324c <__bad_interrupt>
  58:	0c 94 26 19 	jmp	0x324c	; 0x324c <__bad_interrupt>
  5c:	0c 94 26 19 	jmp	0x324c	; 0x324c <__bad_interrupt>
  60:	0c 94 26 19 	jmp	0x324c	; 0x324c <__bad_interrupt>
  64:	0c 94 26 19 	jmp	0x324c	; 0x324c <__bad_interrupt>

00000068 <.dinit>:
  68:	01 00       	.word	0x0001	; ????
  6a:	02 e9       	ldi	r16, 0x92	; 146
  6c:	80 02       	muls	r24, r16
  6e:	e9 02       	muls	r30, r25
  70:	eb 00       	.word	0x00eb	; ????
  72:	32 5a       	subi	r19, 0xA2	; 162
  74:	02 eb       	ldi	r16, 0xB2	; 178
  76:	02 ed       	ldi	r16, 0xD2	; 210
  78:	80 02       	muls	r24, r16
  7a:	ed 02       	muls	r30, r29
  7c:	ef 00       	.word	0x00ef	; ????
  7e:	32 5c       	subi	r19, 0xC2	; 194
  80:	02 ef       	ldi	r16, 0xF2	; 242
  82:	02 fa       	bst	r0, 2
  84:	80 00       	.word	0x0080	; ????

00000086 <__ctors_end>:
  86:	11 24       	eor	r1, r1
  88:	1f be       	out	0x3f, r1	; 63
  8a:	cf ef       	ldi	r28, 0xFF	; 255
  8c:	d8 e0       	ldi	r29, 0x08	; 8
  8e:	de bf       	out	0x3e, r29	; 62
  90:	cd bf       	out	0x3d, r28	; 61

00000092 <__do_copy_data>:
  92:	e8 e6       	ldi	r30, 0x68	; 104
  94:	f0 e0       	ldi	r31, 0x00	; 0
  96:	40 e0       	ldi	r20, 0x00	; 0
  98:	17 c0       	rjmp	.+46     	; 0xc8 <__do_clear_bss+0x8>
  9a:	b5 91       	lpm	r27, Z+
  9c:	a5 91       	lpm	r26, Z+
  9e:	35 91       	lpm	r19, Z+
  a0:	25 91       	lpm	r18, Z+
  a2:	05 91       	lpm	r16, Z+
  a4:	07 fd       	sbrc	r16, 7
  a6:	0c c0       	rjmp	.+24     	; 0xc0 <__do_clear_bss>
  a8:	95 91       	lpm	r25, Z+
  aa:	85 91       	lpm	r24, Z+
  ac:	ef 01       	movw	r28, r30
  ae:	f9 2f       	mov	r31, r25
  b0:	e8 2f       	mov	r30, r24
  b2:	05 90       	lpm	r0, Z+
  b4:	0d 92       	st	X+, r0
  b6:	a2 17       	cp	r26, r18
  b8:	b3 07       	cpc	r27, r19
  ba:	d9 f7       	brne	.-10     	; 0xb2 <__do_copy_data+0x20>
  bc:	fe 01       	movw	r30, r28
  be:	04 c0       	rjmp	.+8      	; 0xc8 <__do_clear_bss+0x8>

000000c0 <__do_clear_bss>:
  c0:	1d 92       	st	X+, r1
  c2:	a2 17       	cp	r26, r18
  c4:	b3 07       	cpc	r27, r19
  c6:	e1 f7       	brne	.-8      	; 0xc0 <__do_clear_bss>
  c8:	e5 38       	cpi	r30, 0x85	; 133
  ca:	f4 07       	cpc	r31, r20
  cc:	31 f7       	brne	.-52     	; 0x9a <__do_copy_data+0x8>
  ce:	0e 94 a9 08 	call	0x1152	; 0x1152 <main>
  d2:	0c 94 ae 18 	jmp	0x315c	; 0x315c <exit>

000000d6 <_exit>:
  d6:	f8 94       	cli

000000d8 <__stop_program>:
  d8:	ff cf       	rjmp	.-2      	; 0xd8 <__stop_program>

Disassembly of section .text:

0000324c <__bad_interrupt>:
    324c:	0c 94 00 00 	jmp	0	; 0x0 <__TEXT_REGION_ORIGIN__>

Disassembly of section .text.DHT11_iniciar:

00002ddc <DHT11_iniciar>:
uint8_t checksum;
uint8_t ignorar_flanco;


void DHT11_iniciar(){
	flag_error_sensor = 0;
    2ddc:	10 92 f7 02 	sts	0x02F7, r1	; 0x8002f7 <flag_error_sensor>
	espera_30ms = 0;
    2de0:	10 92 f4 02 	sts	0x02F4, r1	; 0x8002f4 <espera_30ms>
	
	//PIN C0 como salida, lo pongo en bajo
	DDRC |= (1<<PORTC0);
    2de4:	87 b1       	in	r24, 0x07	; 7
    2de6:	81 60       	ori	r24, 0x01	; 1
    2de8:	87 b9       	out	0x07, r24	; 7
	PORTC &= ~(1<<PORTC0);
    2dea:	88 b1       	in	r24, 0x08	; 8
    2dec:	8e 7f       	andi	r24, 0xFE	; 254
    2dee:	88 b9       	out	0x08, r24	; 8
	
	//Mantengo en bajo por mas de 18ms
	while (espera_30ms<3){
    2df0:	80 91 f4 02 	lds	r24, 0x02F4	; 0x8002f4 <espera_30ms>
    2df4:	83 30       	cpi	r24, 0x03	; 3
    2df6:	e0 f3       	brcs	.-8      	; 0x2df0 <DHT11_iniciar+0x14>
		
	}

	//Pongo en alto y lo configuro como entrada, espero respuesta del sensor
	PORTC |= (1<<PORTC0);
    2df8:	88 b1       	in	r24, 0x08	; 8
    2dfa:	81 60       	ori	r24, 0x01	; 1
    2dfc:	88 b9       	out	0x08, r24	; 8
	DDRC &= ~(1<<PORTC0);
    2dfe:	87 b1       	in	r24, 0x07	; 7
    2e00:	8e 7f       	andi	r24, 0xFE	; 254
    2e02:	87 b9       	out	0x07, r24	; 7
	bit_actual=-1;
    2e04:	8f ef       	ldi	r24, 0xFF	; 255
    2e06:	80 93 ed 02 	sts	0x02ED, r24	; 0x8002ed <bit_actual>
	ignorar_flanco=1;
    2e0a:	81 e0       	ldi	r24, 0x01	; 1
    2e0c:	80 93 04 01 	sts	0x0104, r24	; 0x800104 <ignorar_flanco>
	PCMSK1 |=  (1 << PCINT8);
    2e10:	ec e6       	ldi	r30, 0x6C	; 108
    2e12:	f0 e0       	ldi	r31, 0x00	; 0
    2e14:	80 81       	ld	r24, Z
    2e16:	81 60       	ori	r24, 0x01	; 1
    2e18:	80 83       	st	Z, r24
    2e1a:	08 95       	ret

Disassembly of section .text.DHT11_recibir:

00002e1c <DHT11_recibir>:
}

void DHT11_recibir(uint8_t *humedad, uint8_t *temperatura){
    2e1c:	dc 01       	movw	r26, r24
	checksum = datos[0] + datos[1] + datos[2] + datos[3];
    2e1e:	e4 ee       	ldi	r30, 0xE4	; 228
    2e20:	f2 e0       	ldi	r31, 0x02	; 2
    2e22:	40 81       	ld	r20, Z
    2e24:	91 81       	ldd	r25, Z+1	; 0x01
    2e26:	32 81       	ldd	r19, Z+2	; 0x02
    2e28:	23 81       	ldd	r18, Z+3	; 0x03
    2e2a:	94 0f       	add	r25, r20
    2e2c:	93 0f       	add	r25, r19
    2e2e:	92 0f       	add	r25, r18
    2e30:	90 93 07 01 	sts	0x0107, r25	; 0x800107 <checksum>
	if (checksum == datos[4]){
    2e34:	24 81       	ldd	r18, Z+4	; 0x04
    2e36:	92 13       	cpse	r25, r18
    2e38:	06 c0       	rjmp	.+12     	; 0x2e46 <DHT11_recibir+0x2a>
		*humedad = datos[0];
    2e3a:	4c 93       	st	X, r20
		*temperatura = datos[2];
    2e3c:	80 91 e6 02 	lds	r24, 0x02E6	; 0x8002e6 <_end+0x2>
    2e40:	db 01       	movw	r26, r22
    2e42:	8c 93       	st	X, r24
    2e44:	03 c0       	rjmp	.+6      	; 0x2e4c <DHT11_recibir+0x30>
	}
	else flag_error_sensor = 1;
    2e46:	81 e0       	ldi	r24, 0x01	; 1
    2e48:	80 93 f7 02 	sts	0x02F7, r24	; 0x8002f7 <flag_error_sensor>
	memset(datos, 0, sizeof(datos));
    2e4c:	85 e0       	ldi	r24, 0x05	; 5
    2e4e:	e4 ee       	ldi	r30, 0xE4	; 228
    2e50:	f2 e0       	ldi	r31, 0x02	; 2
    2e52:	df 01       	movw	r26, r30
    2e54:	1d 92       	st	X+, r1
    2e56:	8a 95       	dec	r24
    2e58:	e9 f7       	brne	.-6      	; 0x2e54 <DHT11_recibir+0x38>
    2e5a:	08 95       	ret

Disassembly of section .text.__vector_4:

00001a12 <__vector_4>:
}


ISR(PCINT1_vect) {
    1a12:	1f 92       	push	r1
    1a14:	0f 92       	push	r0
    1a16:	0f b6       	in	r0, 0x3f	; 63
    1a18:	0f 92       	push	r0
    1a1a:	11 24       	eor	r1, r1
    1a1c:	2f 93       	push	r18
    1a1e:	3f 93       	push	r19
    1a20:	4f 93       	push	r20
    1a22:	5f 93       	push	r21
    1a24:	8f 93       	push	r24
    1a26:	9f 93       	push	r25
    1a28:	ef 93       	push	r30
    1a2a:	ff 93       	push	r31
    t_actual = TCNT1;
    1a2c:	80 91 84 00 	lds	r24, 0x0084	; 0x800084 <__TEXT_REGION_LENGTH__+0x7f8084>
    1a30:	90 91 85 00 	lds	r25, 0x0085	; 0x800085 <__TEXT_REGION_LENGTH__+0x7f8085>
    1a34:	90 93 01 01 	sts	0x0101, r25	; 0x800101 <__DATA_REGION_ORIGIN__+0x1>
    1a38:	80 93 00 01 	sts	0x0100, r24	; 0x800100 <__DATA_REGION_ORIGIN__>
    
    if (PINC & (1 << PINC0)) {
    1a3c:	30 9b       	sbis	0x06, 0	; 6
    1a3e:	05 c0       	rjmp	.+10     	; 0x1a4a <__vector_4+0x38>
        t_inicio_pulso = t_actual;
    1a40:	90 93 03 01 	sts	0x0103, r25	; 0x800103 <t_inicio_pulso+0x1>
    1a44:	80 93 02 01 	sts	0x0102, r24	; 0x800102 <t_inicio_pulso>
    1a48:	66 c0       	rjmp	.+204    	; 0x1b16 <__vector_4+0x104>
    } else {
		if (ignorar_flanco) {
    1a4a:	20 91 04 01 	lds	r18, 0x0104	; 0x800104 <ignorar_flanco>
    1a4e:	22 23       	and	r18, r18
    1a50:	19 f0       	breq	.+6      	; 0x1a58 <__vector_4+0x46>
			ignorar_flanco = 0;   // descartamos este, que lo generó el MCU
    1a52:	10 92 04 01 	sts	0x0104, r1	; 0x800104 <ignorar_flanco>
			return;
    1a56:	5f c0       	rjmp	.+190    	; 0x1b16 <__vector_4+0x104>
		}
		if (t_actual < t_inicio_pulso) t_actual += 20000;
    1a58:	20 91 02 01 	lds	r18, 0x0102	; 0x800102 <t_inicio_pulso>
    1a5c:	30 91 03 01 	lds	r19, 0x0103	; 0x800103 <t_inicio_pulso+0x1>
    1a60:	82 17       	cp	r24, r18
    1a62:	93 07       	cpc	r25, r19
    1a64:	30 f4       	brcc	.+12     	; 0x1a72 <__vector_4+0x60>
    1a66:	80 5e       	subi	r24, 0xE0	; 224
    1a68:	91 4b       	sbci	r25, 0xB1	; 177
    1a6a:	90 93 01 01 	sts	0x0101, r25	; 0x800101 <__DATA_REGION_ORIGIN__+0x1>
    1a6e:	80 93 00 01 	sts	0x0100, r24	; 0x800100 <__DATA_REGION_ORIGIN__>
        duracion = t_actual - t_inicio_pulso;
    1a72:	80 91 00 01 	lds	r24, 0x0100	; 0x800100 <__DATA_REGION_ORIGIN__>
    1a76:	90 91 01 01 	lds	r25, 0x0101	; 0x800101 <__DATA_REGION_ORIGIN__+0x1>
    1a7a:	82 1b       	sub	r24, r18
    1a7c:	93 0b       	sbc	r25, r19
    1a7e:	90 93 06 01 	sts	0x0106, r25	; 0x800106 <duracion+0x1>
    1a82:	80 93 05 01 	sts	0x0105, r24	; 0x800105 <duracion>
        
        if (bit_actual == -1) {
    1a86:	20 91 ed 02 	lds	r18, 0x02ED	; 0x8002ed <bit_actual>
    1a8a:	2f 3f       	cpi	r18, 0xFF	; 255
    1a8c:	59 f4       	brne	.+22     	; 0x1aa4 <__vector_4+0x92>
            // Este es el pulso en ALTO de la respuesta del sensor (80us)
            // 80us con prescaler 8 son 160 cuentas. Verificamos un rango:
            if (duracion > 140 && duracion < 180) { 
    1a8e:	8d 58       	subi	r24, 0x8D	; 141
    1a90:	91 09       	sbc	r25, r1
    1a92:	87 97       	sbiw	r24, 0x27	; 39
    1a94:	18 f4       	brcc	.+6      	; 0x1a9c <__vector_4+0x8a>
                bit_actual = 0; // Respuesta válida, ahora sí esperamos los 40 bits
    1a96:	10 92 ed 02 	sts	0x02ED, r1	; 0x8002ed <bit_actual>
    1a9a:	3d c0       	rjmp	.+122    	; 0x1b16 <__vector_4+0x104>
            } else {
                flag_error_sensor = 1; // El sensor no respondió correctamente
    1a9c:	81 e0       	ldi	r24, 0x01	; 1
    1a9e:	80 93 f7 02 	sts	0x02F7, r24	; 0x8002f7 <flag_error_sensor>
    1aa2:	39 c0       	rjmp	.+114    	; 0x1b16 <__vector_4+0x104>
            }
        } else if (bit_actual < 40) {
    1aa4:	28 32       	cpi	r18, 0x28	; 40
    1aa6:	bc f5       	brge	.+110    	; 0x1b16 <__vector_4+0x104>
			if (duracion > 120 && duracion < 160){
    1aa8:	89 57       	subi	r24, 0x79	; 121
    1aaa:	91 09       	sbc	r25, r1
    1aac:	87 97       	sbiw	r24, 0x27	; 39
    1aae:	18 f5       	brcc	.+70     	; 0x1af6 <__vector_4+0xe4>
				//Es un 1
				datos[bit_actual/8] |= (1 << (7 - (bit_actual % 8)));
    1ab0:	e2 2f       	mov	r30, r18
    1ab2:	22 23       	and	r18, r18
    1ab4:	14 f4       	brge	.+4      	; 0x1aba <__vector_4+0xa8>
    1ab6:	e7 e0       	ldi	r30, 0x07	; 7
    1ab8:	e2 0f       	add	r30, r18
    1aba:	e5 95       	asr	r30
    1abc:	e5 95       	asr	r30
    1abe:	e5 95       	asr	r30
    1ac0:	0e 2e       	mov	r0, r30
    1ac2:	00 0c       	add	r0, r0
    1ac4:	ff 0b       	sbc	r31, r31
    1ac6:	82 2f       	mov	r24, r18
    1ac8:	87 78       	andi	r24, 0x87	; 135
    1aca:	1c f4       	brge	.+6      	; 0x1ad2 <__vector_4+0xc0>
    1acc:	81 50       	subi	r24, 0x01	; 1
    1ace:	88 6f       	ori	r24, 0xF8	; 248
    1ad0:	8f 5f       	subi	r24, 0xFF	; 255
    1ad2:	47 e0       	ldi	r20, 0x07	; 7
    1ad4:	50 e0       	ldi	r21, 0x00	; 0
    1ad6:	48 1b       	sub	r20, r24
    1ad8:	51 09       	sbc	r21, r1
    1ada:	87 fd       	sbrc	r24, 7
    1adc:	53 95       	inc	r21
    1ade:	81 e0       	ldi	r24, 0x01	; 1
    1ae0:	90 e0       	ldi	r25, 0x00	; 0
    1ae2:	02 c0       	rjmp	.+4      	; 0x1ae8 <__vector_4+0xd6>
    1ae4:	88 0f       	add	r24, r24
    1ae6:	99 1f       	adc	r25, r25
    1ae8:	4a 95       	dec	r20
    1aea:	e2 f7       	brpl	.-8      	; 0x1ae4 <__vector_4+0xd2>
    1aec:	ec 51       	subi	r30, 0x1C	; 28
    1aee:	fd 4f       	sbci	r31, 0xFD	; 253
    1af0:	90 81       	ld	r25, Z
    1af2:	89 2b       	or	r24, r25
    1af4:	80 83       	st	Z, r24
			}
			bit_actual++;
    1af6:	2f 5f       	subi	r18, 0xFF	; 255
    1af8:	20 93 ed 02 	sts	0x02ED, r18	; 0x8002ed <bit_actual>
            if (bit_actual == 40) {
    1afc:	28 32       	cpi	r18, 0x28	; 40
    1afe:	59 f4       	brne	.+22     	; 0x1b16 <__vector_4+0x104>
				PCMSK1 &=  ~(1 << PCINT8);
    1b00:	ec e6       	ldi	r30, 0x6C	; 108
    1b02:	f0 e0       	ldi	r31, 0x00	; 0
    1b04:	80 81       	ld	r24, Z
    1b06:	8e 7f       	andi	r24, 0xFE	; 254
    1b08:	80 83       	st	Z, r24
				flag_dht_listo = 1;
    1b0a:	81 e0       	ldi	r24, 0x01	; 1
    1b0c:	80 93 f6 02 	sts	0x02F6, r24	; 0x8002f6 <flag_dht_listo>
				bit_actual = -1;
    1b10:	8f ef       	ldi	r24, 0xFF	; 255
    1b12:	80 93 ed 02 	sts	0x02ED, r24	; 0x8002ed <bit_actual>
			}
        }
    }
}
    1b16:	ff 91       	pop	r31
    1b18:	ef 91       	pop	r30
    1b1a:	9f 91       	pop	r25
    1b1c:	8f 91       	pop	r24
    1b1e:	5f 91       	pop	r21
    1b20:	4f 91       	pop	r20
    1b22:	3f 91       	pop	r19
    1b24:	2f 91       	pop	r18
    1b26:	0f 90       	pop	r0
    1b28:	0f be       	out	0x3f, r0	; 63
    1b2a:	0f 90       	pop	r0
    1b2c:	1f 90       	pop	r1
    1b2e:	18 95       	reti

Disassembly of section .text.decimal_to_bcd:

00003044 <decimal_to_bcd>:
#include "ds3231.h"
#include "i2c.h"
#define RTC_ADDR 0x68  //dirección fija

uint8_t decimal_to_bcd(uint8_t val){
	return ((val / 10) << 4) | (val % 10);
    3044:	9d ec       	ldi	r25, 0xCD	; 205
    3046:	89 9f       	mul	r24, r25
    3048:	91 2d       	mov	r25, r1
    304a:	11 24       	eor	r1, r1
    304c:	96 95       	lsr	r25
    304e:	96 95       	lsr	r25
    3050:	96 95       	lsr	r25
    3052:	20 e1       	ldi	r18, 0x10	; 16
    3054:	92 9f       	mul	r25, r18
    3056:	a0 01       	movw	r20, r0
    3058:	11 24       	eor	r1, r1
    305a:	99 0f       	add	r25, r25
    305c:	29 2f       	mov	r18, r25
    305e:	22 0f       	add	r18, r18
    3060:	22 0f       	add	r18, r18
    3062:	92 0f       	add	r25, r18
    3064:	89 1b       	sub	r24, r25
}
    3066:	84 2b       	or	r24, r20
    3068:	08 95       	ret

Disassembly of section .text.bcd_to_decimal:

00003146 <bcd_to_decimal>:

uint8_t bcd_to_decimal(uint8_t bcd) {
	return ((bcd >> 4) * 10) + (bcd & 0x0F);
    3146:	98 2f       	mov	r25, r24
    3148:	92 95       	swap	r25
    314a:	9f 70       	andi	r25, 0x0F	; 15
    314c:	99 0f       	add	r25, r25
    314e:	29 2f       	mov	r18, r25
    3150:	22 0f       	add	r18, r18
    3152:	22 0f       	add	r18, r18
    3154:	92 0f       	add	r25, r18
    3156:	8f 70       	andi	r24, 0x0F	; 15
}
    3158:	89 0f       	add	r24, r25
    315a:	08 95       	ret

Disassembly of section .text.rtc_get_time:

00002714 <rtc_get_time>:

void rtc_get_time(uint8_t *hora, uint8_t *minutos, uint8_t *segundos){
    2714:	bf 92       	push	r11
    2716:	cf 92       	push	r12
    2718:	df 92       	push	r13
    271a:	ef 92       	push	r14
    271c:	ff 92       	push	r15
    271e:	0f 93       	push	r16
    2720:	1f 93       	push	r17
    2722:	cf 93       	push	r28
    2724:	df 93       	push	r29
    2726:	ec 01       	movw	r28, r24
    2728:	7b 01       	movw	r14, r22
    272a:	6a 01       	movw	r12, r20
	uint8_t seg_bcd, min_bcd, hora_bcd;
	i2c_start();
    272c:	0e 94 03 19 	call	0x3206	; 0x3206 <i2c_start>
	i2c_write(RTC_ADDR << 1); // Modo escritura (0xD0)
    2730:	80 ed       	ldi	r24, 0xD0	; 208
    2732:	0e 94 b9 18 	call	0x3172	; 0x3172 <i2c_write>
	i2c_write(0x00);          // Forzamos al puntero del RTC a ir a "Segundos"
    2736:	80 e0       	ldi	r24, 0x00	; 0
    2738:	0e 94 b9 18 	call	0x3172	; 0x3172 <i2c_write>
	i2c_stop();
    273c:	0e 94 1f 19 	call	0x323e	; 0x323e <i2c_stop>
	//posiciona el rtc en segundos
	
	i2c_start();
    2740:	0e 94 03 19 	call	0x3206	; 0x3206 <i2c_start>
	i2c_write(RTC_ADDR << 1| 0x01);
    2744:	81 ed       	ldi	r24, 0xD1	; 209
    2746:	0e 94 b9 18 	call	0x3172	; 0x3172 <i2c_write>
	seg_bcd=i2c_read(0);
    274a:	80 e0       	ldi	r24, 0x00	; 0
    274c:	0e 94 5a 18 	call	0x30b4	; 0x30b4 <i2c_read>
    2750:	b8 2e       	mov	r11, r24
	min_bcd=i2c_read(0);
    2752:	80 e0       	ldi	r24, 0x00	; 0
    2754:	0e 94 5a 18 	call	0x30b4	; 0x30b4 <i2c_read>
    2758:	08 2f       	mov	r16, r24
	hora_bcd=i2c_read(1);
    275a:	81 e0       	ldi	r24, 0x01	; 1
    275c:	0e 94 5a 18 	call	0x30b4	; 0x30b4 <i2c_read>
    2760:	18 2f       	mov	r17, r24
	i2c_stop();
    2762:	0e 94 1f 19 	call	0x323e	; 0x323e <i2c_stop>
	*segundos = bcd_to_decimal(seg_bcd);
    2766:	8b 2d       	mov	r24, r11
    2768:	0e 94 a3 18 	call	0x3146	; 0x3146 <bcd_to_decimal>
    276c:	f6 01       	movw	r30, r12
    276e:	80 83       	st	Z, r24
	*minutos = bcd_to_decimal(min_bcd);
    2770:	80 2f       	mov	r24, r16
    2772:	0e 94 a3 18 	call	0x3146	; 0x3146 <bcd_to_decimal>
    2776:	f7 01       	movw	r30, r14
    2778:	80 83       	st	Z, r24
	*hora = bcd_to_decimal(hora_bcd);
    277a:	81 2f       	mov	r24, r17
    277c:	0e 94 a3 18 	call	0x3146	; 0x3146 <bcd_to_decimal>
    2780:	88 83       	st	Y, r24
}
    2782:	df 91       	pop	r29
    2784:	cf 91       	pop	r28
    2786:	1f 91       	pop	r17
    2788:	0f 91       	pop	r16
    278a:	ff 90       	pop	r15
    278c:	ef 90       	pop	r14
    278e:	df 90       	pop	r13
    2790:	cf 90       	pop	r12
    2792:	bf 90       	pop	r11
    2794:	08 95       	ret

Disassembly of section .text.rtc_set_time:

00002cc6 <rtc_set_time>:

void rtc_set_time(uint8_t hora, uint8_t minutos, uint8_t segundos){
    2cc6:	1f 93       	push	r17
    2cc8:	cf 93       	push	r28
    2cca:	df 93       	push	r29
    2ccc:	c8 2f       	mov	r28, r24
    2cce:	d6 2f       	mov	r29, r22
    2cd0:	14 2f       	mov	r17, r20
	i2c_start();
    2cd2:	0e 94 03 19 	call	0x3206	; 0x3206 <i2c_start>
	i2c_write(RTC_ADDR << 1);
    2cd6:	80 ed       	ldi	r24, 0xD0	; 208
    2cd8:	0e 94 b9 18 	call	0x3172	; 0x3172 <i2c_write>
	i2c_write(0x00);
    2cdc:	80 e0       	ldi	r24, 0x00	; 0
    2cde:	0e 94 b9 18 	call	0x3172	; 0x3172 <i2c_write>
	i2c_write(decimal_to_bcd(segundos));
    2ce2:	81 2f       	mov	r24, r17
    2ce4:	0e 94 22 18 	call	0x3044	; 0x3044 <decimal_to_bcd>
    2ce8:	0e 94 b9 18 	call	0x3172	; 0x3172 <i2c_write>
	i2c_write(decimal_to_bcd(minutos));
    2cec:	8d 2f       	mov	r24, r29
    2cee:	0e 94 22 18 	call	0x3044	; 0x3044 <decimal_to_bcd>
    2cf2:	0e 94 b9 18 	call	0x3172	; 0x3172 <i2c_write>
	i2c_write(decimal_to_bcd(hora));
    2cf6:	8c 2f       	mov	r24, r28
    2cf8:	0e 94 22 18 	call	0x3044	; 0x3044 <decimal_to_bcd>
    2cfc:	0e 94 b9 18 	call	0x3172	; 0x3172 <i2c_write>
	i2c_stop();
    2d00:	0e 94 1f 19 	call	0x323e	; 0x323e <i2c_stop>
    2d04:	df 91       	pop	r29
    2d06:	cf 91       	pop	r28
    2d08:	1f 91       	pop	r17
    2d0a:	08 95       	ret

Disassembly of section .text.i2c_init:

0000319a <i2c_init>:
 *  Author: labej
 */ 
#include "i2c.h"

void i2c_init(void){
	TWSR=0x00; //preescalar en 0
    319a:	10 92 b9 00 	sts	0x00B9, r1	; 0x8000b9 <__TEXT_REGION_LENGTH__+0x7f80b9>
	TWBR=152; //16Mhz
    319e:	88 e9       	ldi	r24, 0x98	; 152
    31a0:	80 93 b8 00 	sts	0x00B8, r24	; 0x8000b8 <__TEXT_REGION_LENGTH__+0x7f80b8>
	TWCR=0x04; //Activar TWI
    31a4:	84 e0       	ldi	r24, 0x04	; 4
    31a6:	80 93 bc 00 	sts	0x00BC, r24	; 0x8000bc <__TEXT_REGION_LENGTH__+0x7f80bc>
    31aa:	08 95       	ret

Disassembly of section .text.i2c_start:

00003206 <i2c_start>:
}

void i2c_start(void){
	TWCR = (1 << TWINT) | (1 << TWSTA) | (1 << TWEN);
    3206:	84 ea       	ldi	r24, 0xA4	; 164
    3208:	80 93 bc 00 	sts	0x00BC, r24	; 0x8000bc <__TEXT_REGION_LENGTH__+0x7f80bc>
	
	while((TWCR & (1<< TWINT)) == 0);
    320c:	80 91 bc 00 	lds	r24, 0x00BC	; 0x8000bc <__TEXT_REGION_LENGTH__+0x7f80bc>
    3210:	88 23       	and	r24, r24
    3212:	e4 f7       	brge	.-8      	; 0x320c <i2c_start+0x6>
}
    3214:	08 95       	ret

Disassembly of section .text.i2c_read:

000030b4 <i2c_read>:

unsigned char i2c_read(unsigned char isLast){
	if(isLast == 0)
    30b4:	81 11       	cpse	r24, r1
    30b6:	04 c0       	rjmp	.+8      	; 0x30c0 <i2c_read+0xc>
		TWCR = (1<< TWINT)|(1<< TWEN)|(1<< TWEA);
    30b8:	84 ec       	ldi	r24, 0xC4	; 196
    30ba:	80 93 bc 00 	sts	0x00BC, r24	; 0x8000bc <__TEXT_REGION_LENGTH__+0x7f80bc>
    30be:	03 c0       	rjmp	.+6      	; 0x30c6 <i2c_read+0x12>
	else
		TWCR =	(1 << TWINT)|(1<< TWEN);
    30c0:	84 e8       	ldi	r24, 0x84	; 132
    30c2:	80 93 bc 00 	sts	0x00BC, r24	; 0x8000bc <__TEXT_REGION_LENGTH__+0x7f80bc>
	while((TWCR & (1 << TWINT))==0);
    30c6:	80 91 bc 00 	lds	r24, 0x00BC	; 0x8000bc <__TEXT_REGION_LENGTH__+0x7f80bc>
    30ca:	88 23       	and	r24, r24
    30cc:	e4 f7       	brge	.-8      	; 0x30c6 <i2c_read+0x12>
	return TWDR;
    30ce:	80 91 bb 00 	lds	r24, 0x00BB	; 0x8000bb <__TEXT_REGION_LENGTH__+0x7f80bb>
}
    30d2:	08 95       	ret

Disassembly of section .text.i2c_write:

00003172 <i2c_write>:

void i2c_write(unsigned char data){
	TWDR = data;
    3172:	80 93 bb 00 	sts	0x00BB, r24	; 0x8000bb <__TEXT_REGION_LENGTH__+0x7f80bb>
	TWCR = (1<< TWINT)|(1<< TWEN);
    3176:	84 e8       	ldi	r24, 0x84	; 132
    3178:	80 93 bc 00 	sts	0x00BC, r24	; 0x8000bc <__TEXT_REGION_LENGTH__+0x7f80bc>
	while((TWCR & (1<< TWINT))==0);
    317c:	80 91 bc 00 	lds	r24, 0x00BC	; 0x8000bc <__TEXT_REGION_LENGTH__+0x7f80bc>
    3180:	88 23       	and	r24, r24
    3182:	e4 f7       	brge	.-8      	; 0x317c <i2c_write+0xa>
}
    3184:	08 95       	ret

Disassembly of section .text.i2c_stop:

0000323e <i2c_stop>:

void i2c_stop(){
	TWCR = (1 << TWINT) | (1 << TWEN) | (1 << TWSTO);
    323e:	84 e9       	ldi	r24, 0x94	; 148
    3240:	80 93 bc 00 	sts	0x00BC, r24	; 0x8000bc <__TEXT_REGION_LENGTH__+0x7f80bc>
    3244:	08 95       	ret

Disassembly of section .text.validar_set_time:

00001f66 <validar_set_time>:
char mensaje[120];
volatile uint16_t intervalo_T = 200; //100 por cada segundo de interrupcion
uint8_t seg = 2;
int libre =1;

uint8_t validar_set_time(const char *str, uint8_t *h, uint8_t *m, uint8_t *s) {
    1f66:	cf 92       	push	r12
    1f68:	df 92       	push	r13
    1f6a:	ef 92       	push	r14
    1f6c:	ff 92       	push	r15
    1f6e:	0f 93       	push	r16
    1f70:	1f 93       	push	r17
    1f72:	cf 93       	push	r28
    1f74:	df 93       	push	r29
    1f76:	00 d0       	rcall	.+0      	; 0x1f78 <validar_set_time+0x12>
    1f78:	00 d0       	rcall	.+0      	; 0x1f7a <validar_set_time+0x14>
    1f7a:	00 d0       	rcall	.+0      	; 0x1f7c <validar_set_time+0x16>
    1f7c:	cd b7       	in	r28, 0x3d	; 61
    1f7e:	de b7       	in	r29, 0x3e	; 62
    1f80:	6a 01       	movw	r12, r20
    1f82:	79 01       	movw	r14, r18
	int h_, m_, s_;
	
	if (sscanf(str, "SET_TIME=%d:%d:%d", &h_, &m_, &s_) != 3)
    1f84:	9e 01       	movw	r18, r28
    1f86:	2b 5f       	subi	r18, 0xFB	; 251
    1f88:	3f 4f       	sbci	r19, 0xFF	; 255
    1f8a:	40 e8       	ldi	r20, 0x80	; 128
    1f8c:	4f 93       	push	r20
    1f8e:	3f 93       	push	r19
    1f90:	2f 93       	push	r18
    1f92:	9e 01       	movw	r18, r28
    1f94:	2d 5f       	subi	r18, 0xFD	; 253
    1f96:	3f 4f       	sbci	r19, 0xFF	; 255
    1f98:	40 e8       	ldi	r20, 0x80	; 128
    1f9a:	4f 93       	push	r20
    1f9c:	3f 93       	push	r19
    1f9e:	2f 93       	push	r18
    1fa0:	9e 01       	movw	r18, r28
    1fa2:	2f 5f       	subi	r18, 0xFF	; 255
    1fa4:	3f 4f       	sbci	r19, 0xFF	; 255
    1fa6:	40 e8       	ldi	r20, 0x80	; 128
    1fa8:	4f 93       	push	r20
    1faa:	3f 93       	push	r19
    1fac:	2f 93       	push	r18
    1fae:	2a ed       	ldi	r18, 0xDA	; 218
    1fb0:	30 e0       	ldi	r19, 0x00	; 0
    1fb2:	40 e0       	ldi	r20, 0x00	; 0
    1fb4:	4f 93       	push	r20
    1fb6:	3f 93       	push	r19
    1fb8:	2f 93       	push	r18
    1fba:	8f 93       	push	r24
    1fbc:	7f 93       	push	r23
    1fbe:	6f 93       	push	r22
    1fc0:	0e 94 86 16 	call	0x2d0c	; 0x2d0c <_sscanf_cdnopuxX>
    1fc4:	0f b6       	in	r0, 0x3f	; 63
    1fc6:	f8 94       	cli
    1fc8:	de bf       	out	0x3e, r29	; 62
    1fca:	0f be       	out	0x3f, r0	; 63
    1fcc:	cd bf       	out	0x3d, r28	; 61
    1fce:	03 97       	sbiw	r24, 0x03	; 3
    1fd0:	c9 f4       	brne	.+50     	; 0x2004 <validar_set_time+0x9e>
	return 0;  // no matchea el formato
	
	// validar rangos
	if (h_ > 23 || m_ > 59 || s_ > 59)
    1fd2:	89 81       	ldd	r24, Y+1	; 0x01
    1fd4:	9a 81       	ldd	r25, Y+2	; 0x02
    1fd6:	88 31       	cpi	r24, 0x18	; 24
    1fd8:	91 05       	cpc	r25, r1
    1fda:	b4 f4       	brge	.+44     	; 0x2008 <validar_set_time+0xa2>
    1fdc:	2b 81       	ldd	r18, Y+3	; 0x03
    1fde:	3c 81       	ldd	r19, Y+4	; 0x04
    1fe0:	2c 33       	cpi	r18, 0x3C	; 60
    1fe2:	31 05       	cpc	r19, r1
    1fe4:	9c f4       	brge	.+38     	; 0x200c <validar_set_time+0xa6>
    1fe6:	2d 81       	ldd	r18, Y+5	; 0x05
    1fe8:	3e 81       	ldd	r19, Y+6	; 0x06
    1fea:	2c 33       	cpi	r18, 0x3C	; 60
    1fec:	31 05       	cpc	r19, r1
    1fee:	84 f4       	brge	.+32     	; 0x2010 <validar_set_time+0xaa>
	return 0;
	
	*h = h_;
    1ff0:	f6 01       	movw	r30, r12
    1ff2:	80 83       	st	Z, r24
	*m = m_;
    1ff4:	8b 81       	ldd	r24, Y+3	; 0x03
    1ff6:	f7 01       	movw	r30, r14
    1ff8:	80 83       	st	Z, r24
	*s = s_;
    1ffa:	8d 81       	ldd	r24, Y+5	; 0x05
    1ffc:	f8 01       	movw	r30, r16
    1ffe:	80 83       	st	Z, r24
	return 1;
    2000:	81 e0       	ldi	r24, 0x01	; 1
    2002:	07 c0       	rjmp	.+14     	; 0x2012 <validar_set_time+0xac>
	return 0;  // no matchea el formato
    2004:	80 e0       	ldi	r24, 0x00	; 0
    2006:	05 c0       	rjmp	.+10     	; 0x2012 <validar_set_time+0xac>
	return 0;
    2008:	80 e0       	ldi	r24, 0x00	; 0
    200a:	03 c0       	rjmp	.+6      	; 0x2012 <validar_set_time+0xac>
    200c:	80 e0       	ldi	r24, 0x00	; 0
    200e:	01 c0       	rjmp	.+2      	; 0x2012 <validar_set_time+0xac>
    2010:	80 e0       	ldi	r24, 0x00	; 0
}
    2012:	26 96       	adiw	r28, 0x06	; 6
    2014:	0f b6       	in	r0, 0x3f	; 63
    2016:	f8 94       	cli
    2018:	de bf       	out	0x3e, r29	; 62
    201a:	0f be       	out	0x3f, r0	; 63
    201c:	cd bf       	out	0x3d, r28	; 61
    201e:	df 91       	pop	r29
    2020:	cf 91       	pop	r28
    2022:	1f 91       	pop	r17
    2024:	0f 91       	pop	r16
    2026:	ff 90       	pop	r15
    2028:	ef 90       	pop	r14
    202a:	df 90       	pop	r13
    202c:	cf 90       	pop	r12
    202e:	08 95       	ret

Disassembly of section .text.validar_set_tm:

0000297a <validar_set_tm>:

uint8_t validar_set_tm(const char *str, uint8_t *seg) {
    297a:	0f 93       	push	r16
    297c:	1f 93       	push	r17
    297e:	cf 93       	push	r28
    2980:	df 93       	push	r29
    2982:	00 d0       	rcall	.+0      	; 0x2984 <validar_set_tm+0xa>
    2984:	cd b7       	in	r28, 0x3d	; 61
    2986:	de b7       	in	r29, 0x3e	; 62
    2988:	8a 01       	movw	r16, r20
	int s_;

	if (sscanf(str, "SET_TM=%d", &s_) != 1) return 0;
    298a:	9e 01       	movw	r18, r28
    298c:	2f 5f       	subi	r18, 0xFF	; 255
    298e:	3f 4f       	sbci	r19, 0xFF	; 255
    2990:	40 e8       	ldi	r20, 0x80	; 128
    2992:	4f 93       	push	r20
    2994:	3f 93       	push	r19
    2996:	2f 93       	push	r18
    2998:	2c ee       	ldi	r18, 0xEC	; 236
    299a:	30 e0       	ldi	r19, 0x00	; 0
    299c:	40 e0       	ldi	r20, 0x00	; 0
    299e:	4f 93       	push	r20
    29a0:	3f 93       	push	r19
    29a2:	2f 93       	push	r18
    29a4:	8f 93       	push	r24
    29a6:	7f 93       	push	r23
    29a8:	6f 93       	push	r22
    29aa:	0e 94 86 16 	call	0x2d0c	; 0x2d0c <_sscanf_cdnopuxX>
    29ae:	0f b6       	in	r0, 0x3f	; 63
    29b0:	f8 94       	cli
    29b2:	de bf       	out	0x3e, r29	; 62
    29b4:	0f be       	out	0x3f, r0	; 63
    29b6:	cd bf       	out	0x3d, r28	; 61
    29b8:	01 97       	sbiw	r24, 0x01	; 1
    29ba:	61 f4       	brne	.+24     	; 0x29d4 <validar_set_tm+0x5a>

	if (s_ < 2 || s_ > 60) return 0;
    29bc:	89 81       	ldd	r24, Y+1	; 0x01
    29be:	9a 81       	ldd	r25, Y+2	; 0x02
    29c0:	9c 01       	movw	r18, r24
    29c2:	22 50       	subi	r18, 0x02	; 2
    29c4:	31 09       	sbc	r19, r1
    29c6:	2b 33       	cpi	r18, 0x3B	; 59
    29c8:	31 05       	cpc	r19, r1
    29ca:	30 f4       	brcc	.+12     	; 0x29d8 <validar_set_tm+0x5e>

	*seg = s_;
    29cc:	f8 01       	movw	r30, r16
    29ce:	80 83       	st	Z, r24
	return 1;
    29d0:	81 e0       	ldi	r24, 0x01	; 1
    29d2:	03 c0       	rjmp	.+6      	; 0x29da <validar_set_tm+0x60>
	if (sscanf(str, "SET_TM=%d", &s_) != 1) return 0;
    29d4:	80 e0       	ldi	r24, 0x00	; 0
    29d6:	01 c0       	rjmp	.+2      	; 0x29da <validar_set_tm+0x60>
	if (s_ < 2 || s_ > 60) return 0;
    29d8:	80 e0       	ldi	r24, 0x00	; 0
}
    29da:	0f 90       	pop	r0
    29dc:	0f 90       	pop	r0
    29de:	df 91       	pop	r29
    29e0:	cf 91       	pop	r28
    29e2:	1f 91       	pop	r17
    29e4:	0f 91       	pop	r16
    29e6:	08 95       	ret

Disassembly of section .text.evaluar_condiciones:

00002b22 <evaluar_condiciones>:

uint8_t evaluar_condiciones(uint8_t h, uint8_t m, uint8_t s, uint8_t temp, uint8_t hum) {
    2b22:	0f 93       	push	r16
	if ((h>6) && (h<19)){
    2b24:	87 50       	subi	r24, 0x07	; 7
    2b26:	8c 30       	cpi	r24, 0x0C	; 12
    2b28:	98 f4       	brcc	.+38     	; 0x2b50 <evaluar_condiciones+0x2e>
		if ((temp<20) | (temp>30) | (hum<50) | (hum>70)) return 0;
    2b2a:	24 51       	subi	r18, 0x14	; 20
    2b2c:	91 e0       	ldi	r25, 0x01	; 1
    2b2e:	2b 30       	cpi	r18, 0x0B	; 11
    2b30:	08 f4       	brcc	.+2      	; 0x2b34 <evaluar_condiciones+0x12>
    2b32:	90 e0       	ldi	r25, 0x00	; 0
    2b34:	81 e0       	ldi	r24, 0x01	; 1
    2b36:	02 33       	cpi	r16, 0x32	; 50
    2b38:	08 f0       	brcs	.+2      	; 0x2b3c <evaluar_condiciones+0x1a>
    2b3a:	80 e0       	ldi	r24, 0x00	; 0
    2b3c:	21 e0       	ldi	r18, 0x01	; 1
    2b3e:	07 34       	cpi	r16, 0x47	; 71
    2b40:	08 f4       	brcc	.+2      	; 0x2b44 <evaluar_condiciones+0x22>
    2b42:	20 e0       	ldi	r18, 0x00	; 0
    2b44:	89 2b       	or	r24, r25
    2b46:	11 f4       	brne	.+4      	; 0x2b4c <evaluar_condiciones+0x2a>
    2b48:	22 23       	and	r18, r18
    2b4a:	a9 f0       	breq	.+42     	; 0x2b76 <evaluar_condiciones+0x54>
    2b4c:	80 e0       	ldi	r24, 0x00	; 0
    2b4e:	16 c0       	rjmp	.+44     	; 0x2b7c <evaluar_condiciones+0x5a>
		else return 1;
	}
	else {
		if ((temp<15) | (temp>22) | (hum<60) | (hum>80)) return 0;
    2b50:	2f 50       	subi	r18, 0x0F	; 15
    2b52:	91 e0       	ldi	r25, 0x01	; 1
    2b54:	28 30       	cpi	r18, 0x08	; 8
    2b56:	08 f4       	brcc	.+2      	; 0x2b5a <evaluar_condiciones+0x38>
    2b58:	90 e0       	ldi	r25, 0x00	; 0
    2b5a:	81 e0       	ldi	r24, 0x01	; 1
    2b5c:	0c 33       	cpi	r16, 0x3C	; 60
    2b5e:	08 f0       	brcs	.+2      	; 0x2b62 <evaluar_condiciones+0x40>
    2b60:	80 e0       	ldi	r24, 0x00	; 0
    2b62:	21 e0       	ldi	r18, 0x01	; 1
    2b64:	01 35       	cpi	r16, 0x51	; 81
    2b66:	08 f4       	brcc	.+2      	; 0x2b6a <evaluar_condiciones+0x48>
    2b68:	20 e0       	ldi	r18, 0x00	; 0
    2b6a:	89 2b       	or	r24, r25
    2b6c:	11 f4       	brne	.+4      	; 0x2b72 <evaluar_condiciones+0x50>
    2b6e:	22 23       	and	r18, r18
    2b70:	21 f0       	breq	.+8      	; 0x2b7a <evaluar_condiciones+0x58>
    2b72:	80 e0       	ldi	r24, 0x00	; 0
    2b74:	03 c0       	rjmp	.+6      	; 0x2b7c <evaluar_condiciones+0x5a>
		else return 1;
    2b76:	81 e0       	ldi	r24, 0x01	; 1
    2b78:	01 c0       	rjmp	.+2      	; 0x2b7c <evaluar_condiciones+0x5a>
		else return 1;
    2b7a:	81 e0       	ldi	r24, 0x01	; 1
	}
}
    2b7c:	0f 91       	pop	r16
    2b7e:	08 95       	ret

Disassembly of section .text.main:

00001152 <main>:

int main(void)
{
	PCICR |= (1 << PCIE1);
    1152:	e8 e6       	ldi	r30, 0x68	; 104
    1154:	f0 e0       	ldi	r31, 0x00	; 0
    1156:	80 81       	ld	r24, Z
    1158:	82 60       	ori	r24, 0x02	; 2
    115a:	80 83       	st	Z, r24
	PCMSK1 &=  ~(1 << PCINT8);
    115c:	ec e6       	ldi	r30, 0x6C	; 108
    115e:	f0 e0       	ldi	r31, 0x00	; 0
    1160:	80 81       	ld	r24, Z
    1162:	8e 7f       	andi	r24, 0xFE	; 254
    1164:	80 83       	st	Z, r24
	timer1_init();
    1166:	0e 94 48 18 	call	0x3090	; 0x3090 <timer1_init>
	set_sleep_mode(SLEEP_MODE_IDLE);
    116a:	83 b7       	in	r24, 0x33	; 51
    116c:	81 7f       	andi	r24, 0xF1	; 241
    116e:	83 bf       	out	0x33, r24	; 51
	sleep_enable();
    1170:	83 b7       	in	r24, 0x33	; 51
    1172:	81 60       	ori	r24, 0x01	; 1
    1174:	83 bf       	out	0x33, r24	; 51
	uart0_init();
    1176:	0e 94 c3 18 	call	0x3186	; 0x3186 <uart0_init>
	i2c_init();
    117a:	0e 94 cd 18 	call	0x319a	; 0x319a <i2c_init>
	sei();
    117e:	78 94       	sei
	uart0_sendString("ARRANCA EL TEST\r\n");
    1180:	66 ef       	ldi	r22, 0xF6	; 246
    1182:	70 e0       	ldi	r23, 0x00	; 0
    1184:	80 e0       	ldi	r24, 0x00	; 0
    1186:	0e 94 cd 17 	call	0x2f9a	; 0x2f9a <uart0_sendString>
    while(1)
    {
		if(flag_timer1){	
    118a:	80 91 f5 02 	lds	r24, 0x02F5	; 0x8002f5 <flag_timer1>
    118e:	88 23       	and	r24, r24
    1190:	21 f0       	breq	.+8      	; 0x119a <main+0x48>
			flag_timer1=0;
    1192:	10 92 f5 02 	sts	0x02F5, r1	; 0x8002f5 <flag_timer1>
			DHT11_iniciar();
    1196:	0e 94 ee 16 	call	0x2ddc	; 0x2ddc <DHT11_iniciar>
		}
		
		if (flag_dht_listo){
    119a:	80 91 f6 02 	lds	r24, 0x02F6	; 0x8002f6 <flag_dht_listo>
    119e:	88 23       	and	r24, r24
    11a0:	09 f4       	brne	.+2      	; 0x11a4 <main+0x52>
    11a2:	ac c0       	rjmp	.+344    	; 0x12fc <main+0x1aa>
			flag_dht_listo=0;
    11a4:	10 92 f6 02 	sts	0x02F6, r1	; 0x8002f6 <flag_dht_listo>
			DHT11_recibir(&humedad,&temperatura);
    11a8:	61 ee       	ldi	r22, 0xE1	; 225
    11aa:	72 e0       	ldi	r23, 0x02	; 2
    11ac:	8e e8       	ldi	r24, 0x8E	; 142
    11ae:	92 e0       	ldi	r25, 0x02	; 2
    11b0:	0e 94 0e 17 	call	0x2e1c	; 0x2e1c <DHT11_recibir>
			
			if (!flag_error_sensor){
    11b4:	80 91 f7 02 	lds	r24, 0x02F7	; 0x8002f7 <flag_error_sensor>
    11b8:	81 11       	cpse	r24, r1
    11ba:	95 c0       	rjmp	.+298    	; 0x12e6 <main+0x194>
				if(evaluar_condiciones(hh,mm,ss,temperatura,humedad)) {
    11bc:	00 91 8e 02 	lds	r16, 0x028E	; 0x80028e <humedad>
    11c0:	20 91 e1 02 	lds	r18, 0x02E1	; 0x8002e1 <temperatura>
    11c4:	40 91 0c 02 	lds	r20, 0x020C	; 0x80020c <ss>
    11c8:	60 91 80 01 	lds	r22, 0x0180	; 0x800180 <mm>
    11cc:	80 91 e0 02 	lds	r24, 0x02E0	; 0x8002e0 <hh>
    11d0:	0e 94 91 15 	call	0x2b22	; 0x2b22 <evaluar_condiciones>
    11d4:	88 23       	and	r24, r24
    11d6:	61 f0       	breq	.+24     	; 0x11f0 <main+0x9e>
					strcpy(estado, "NORMAL");
    11d8:	27 e0       	ldi	r18, 0x07	; 7
    11da:	30 e0       	ldi	r19, 0x00	; 0
    11dc:	48 e0       	ldi	r20, 0x08	; 8
    11de:	51 e0       	ldi	r21, 0x01	; 1
    11e0:	60 e0       	ldi	r22, 0x00	; 0
    11e2:	82 e8       	ldi	r24, 0x82	; 130
    11e4:	91 e0       	ldi	r25, 0x01	; 1
    11e6:	0e 94 84 17 	call	0x2f08	; 0x2f08 <memcpy>
					cant_alertas=0;
    11ea:	10 92 ef 02 	sts	0x02EF, r1	; 0x8002ef <cant_alertas>
    11ee:	14 c0       	rjmp	.+40     	; 0x1218 <main+0xc6>
				}
				else {
					strcpy(estado, "ALERTA");
    11f0:	27 e0       	ldi	r18, 0x07	; 7
    11f2:	30 e0       	ldi	r19, 0x00	; 0
    11f4:	4f e0       	ldi	r20, 0x0F	; 15
    11f6:	51 e0       	ldi	r21, 0x01	; 1
    11f8:	60 e0       	ldi	r22, 0x00	; 0
    11fa:	82 e8       	ldi	r24, 0x82	; 130
    11fc:	91 e0       	ldi	r25, 0x01	; 1
    11fe:	0e 94 84 17 	call	0x2f08	; 0x2f08 <memcpy>
					if (cant_alertas==0) cant_alertas= 2;
    1202:	80 91 ef 02 	lds	r24, 0x02EF	; 0x8002ef <cant_alertas>
    1206:	81 11       	cpse	r24, r1
    1208:	04 c0       	rjmp	.+8      	; 0x1212 <main+0xc0>
    120a:	82 e0       	ldi	r24, 0x02	; 2
    120c:	80 93 ef 02 	sts	0x02EF, r24	; 0x8002ef <cant_alertas>
    1210:	03 c0       	rjmp	.+6      	; 0x1218 <main+0xc6>
					else cant_alertas--;
    1212:	81 50       	subi	r24, 0x01	; 1
    1214:	80 93 ef 02 	sts	0x02EF, r24	; 0x8002ef <cant_alertas>
					
				}
				if(cant_alertas!=2){
    1218:	80 91 ef 02 	lds	r24, 0x02EF	; 0x8002ef <cant_alertas>
    121c:	82 30       	cpi	r24, 0x02	; 2
    121e:	79 f1       	breq	.+94     	; 0x127e <main+0x12c>
					sprintf(
    1220:	82 e8       	ldi	r24, 0x82	; 130
    1222:	91 e0       	ldi	r25, 0x01	; 1
    1224:	a0 e8       	ldi	r26, 0x80	; 128
    1226:	af 93       	push	r26
    1228:	9f 93       	push	r25
    122a:	8f 93       	push	r24
    122c:	80 91 8e 02 	lds	r24, 0x028E	; 0x80028e <humedad>
    1230:	1f 92       	push	r1
    1232:	8f 93       	push	r24
    1234:	80 91 e1 02 	lds	r24, 0x02E1	; 0x8002e1 <temperatura>
    1238:	1f 92       	push	r1
    123a:	8f 93       	push	r24
    123c:	80 91 0c 02 	lds	r24, 0x020C	; 0x80020c <ss>
    1240:	1f 92       	push	r1
    1242:	8f 93       	push	r24
    1244:	80 91 80 01 	lds	r24, 0x0180	; 0x800180 <mm>
    1248:	1f 92       	push	r1
    124a:	8f 93       	push	r24
    124c:	80 91 e0 02 	lds	r24, 0x02E0	; 0x8002e0 <hh>
    1250:	1f 92       	push	r1
    1252:	8f 93       	push	r24
    1254:	86 e1       	ldi	r24, 0x16	; 22
    1256:	91 e0       	ldi	r25, 0x01	; 1
    1258:	a0 e0       	ldi	r26, 0x00	; 0
    125a:	af 93       	push	r26
    125c:	9f 93       	push	r25
    125e:	8f 93       	push	r24
    1260:	88 e0       	ldi	r24, 0x08	; 8
    1262:	91 e0       	ldi	r25, 0x01	; 1
    1264:	9f 93       	push	r25
    1266:	8f 93       	push	r24
    1268:	0e 94 35 18 	call	0x306a	; 0x306a <_sprintf_cdopsuxX>
    126c:	8d b7       	in	r24, 0x3d	; 61
    126e:	9e b7       	in	r25, 0x3e	; 62
    1270:	42 96       	adiw	r24, 0x12	; 18
    1272:	0f b6       	in	r0, 0x3f	; 63
    1274:	f8 94       	cli
    1276:	9e bf       	out	0x3e, r25	; 62
    1278:	0f be       	out	0x3f, r0	; 63
    127a:	8d bf       	out	0x3d, r24	; 61
    127c:	2a c0       	rjmp	.+84     	; 0x12d2 <main+0x180>
					humedad,
					estado
					);
				}
				else{
					enviar_alerta = 0;
    127e:	10 92 f0 02 	sts	0x02F0, r1	; 0x8002f0 <enviar_alerta>
					
					sprintf(
    1282:	80 91 8e 02 	lds	r24, 0x028E	; 0x80028e <humedad>
    1286:	1f 92       	push	r1
    1288:	8f 93       	push	r24
    128a:	80 91 e1 02 	lds	r24, 0x02E1	; 0x8002e1 <temperatura>
    128e:	1f 92       	push	r1
    1290:	8f 93       	push	r24
    1292:	80 91 0c 02 	lds	r24, 0x020C	; 0x80020c <ss>
    1296:	1f 92       	push	r1
    1298:	8f 93       	push	r24
    129a:	80 91 80 01 	lds	r24, 0x0180	; 0x800180 <mm>
    129e:	1f 92       	push	r1
    12a0:	8f 93       	push	r24
    12a2:	80 91 e0 02 	lds	r24, 0x02E0	; 0x8002e0 <hh>
    12a6:	1f 92       	push	r1
    12a8:	8f 93       	push	r24
    12aa:	88 e4       	ldi	r24, 0x48	; 72
    12ac:	91 e0       	ldi	r25, 0x01	; 1
    12ae:	a0 e0       	ldi	r26, 0x00	; 0
    12b0:	af 93       	push	r26
    12b2:	9f 93       	push	r25
    12b4:	8f 93       	push	r24
    12b6:	88 e0       	ldi	r24, 0x08	; 8
    12b8:	91 e0       	ldi	r25, 0x01	; 1
    12ba:	9f 93       	push	r25
    12bc:	8f 93       	push	r24
    12be:	0e 94 35 18 	call	0x306a	; 0x306a <_sprintf_cdopsuxX>
    12c2:	ed b7       	in	r30, 0x3d	; 61
    12c4:	fe b7       	in	r31, 0x3e	; 62
    12c6:	3f 96       	adiw	r30, 0x0f	; 15
    12c8:	0f b6       	in	r0, 0x3f	; 63
    12ca:	f8 94       	cli
    12cc:	fe bf       	out	0x3e, r31	; 62
    12ce:	0f be       	out	0x3f, r0	; 63
    12d0:	ed bf       	out	0x3d, r30	; 61
					temperatura,
					humedad
					);
					
				}
				while(error_tx_lleno);
    12d2:	80 91 f1 02 	lds	r24, 0x02F1	; 0x8002f1 <error_tx_lleno>
    12d6:	81 11       	cpse	r24, r1
    12d8:	fc cf       	rjmp	.-8      	; 0x12d2 <main+0x180>
				uart0_sendString(mensaje);
    12da:	68 e0       	ldi	r22, 0x08	; 8
    12dc:	71 e0       	ldi	r23, 0x01	; 1
    12de:	80 e8       	ldi	r24, 0x80	; 128
    12e0:	0e 94 cd 17 	call	0x2f9a	; 0x2f9a <uart0_sendString>
    12e4:	0b c0       	rjmp	.+22     	; 0x12fc <main+0x1aa>
				
			}
			else {
				flag_error_sensor=0;
    12e6:	10 92 f7 02 	sts	0x02F7, r1	; 0x8002f7 <flag_error_sensor>
				while(error_tx_lleno);
    12ea:	80 91 f1 02 	lds	r24, 0x02F1	; 0x8002f1 <error_tx_lleno>
    12ee:	81 11       	cpse	r24, r1
    12f0:	fc cf       	rjmp	.-8      	; 0x12ea <main+0x198>
				uart0_sendString("ERROR SENSOR\r\n");
    12f2:	68 e9       	ldi	r22, 0x98	; 152
    12f4:	71 e0       	ldi	r23, 0x01	; 1
    12f6:	80 e0       	ldi	r24, 0x00	; 0
    12f8:	0e 94 cd 17 	call	0x2f9a	; 0x2f9a <uart0_sendString>
			}
			
		}
		
		if (flag_error_sensor){
    12fc:	80 91 f7 02 	lds	r24, 0x02F7	; 0x8002f7 <flag_error_sensor>
    1300:	88 23       	and	r24, r24
    1302:	59 f0       	breq	.+22     	; 0x131a <main+0x1c8>
			flag_error_sensor=0;
    1304:	10 92 f7 02 	sts	0x02F7, r1	; 0x8002f7 <flag_error_sensor>
			while(error_tx_lleno);
    1308:	80 91 f1 02 	lds	r24, 0x02F1	; 0x8002f1 <error_tx_lleno>
    130c:	81 11       	cpse	r24, r1
    130e:	fc cf       	rjmp	.-8      	; 0x1308 <main+0x1b6>
			uart0_sendString("ERROR SENSOR\r\n");
    1310:	68 e9       	ldi	r22, 0x98	; 152
    1312:	71 e0       	ldi	r23, 0x01	; 1
    1314:	80 e0       	ldi	r24, 0x00	; 0
    1316:	0e 94 cd 17 	call	0x2f9a	; 0x2f9a <uart0_sendString>
		}
		
		if (string_recibido_flag){
    131a:	80 91 f3 02 	lds	r24, 0x02F3	; 0x8002f3 <string_recibido_flag>
    131e:	88 23       	and	r24, r24
    1320:	09 f4       	brne	.+2      	; 0x1324 <main+0x1d2>
    1322:	33 cf       	rjmp	.-410    	; 0x118a <main+0x38>
			string_recibido_flag=0;
    1324:	10 92 f3 02 	sts	0x02F3, r1	; 0x8002f3 <string_recibido_flag>
			strcpy(comando, buffer_rx);
    1328:	4c e8       	ldi	r20, 0x8C	; 140
    132a:	51 e0       	ldi	r21, 0x01	; 1
    132c:	60 e8       	ldi	r22, 0x80	; 128
    132e:	80 e9       	ldi	r24, 0x90	; 144
    1330:	92 e0       	ldi	r25, 0x02	; 2
    1332:	0e 94 89 18 	call	0x3112	; 0x3112 <strcpy>
			while(error_tx_lleno);
    1336:	80 91 f1 02 	lds	r24, 0x02F1	; 0x8002f1 <error_tx_lleno>
    133a:	81 11       	cpse	r24, r1
    133c:	fc cf       	rjmp	.-8      	; 0x1336 <main+0x1e4>
			uart0_sendString(strcat(comando, "\r\n"));
    133e:	c0 e9       	ldi	r28, 0x90	; 144
    1340:	d2 e0       	ldi	r29, 0x02	; 2
    1342:	fe 01       	movw	r30, r28
    1344:	01 90       	ld	r0, Z+
    1346:	00 20       	and	r0, r0
    1348:	e9 f7       	brne	.-6      	; 0x1344 <main+0x1f2>
    134a:	cf 01       	movw	r24, r30
    134c:	23 e0       	ldi	r18, 0x03	; 3
    134e:	30 e0       	ldi	r19, 0x00	; 0
    1350:	47 ea       	ldi	r20, 0xA7	; 167
    1352:	51 e0       	ldi	r21, 0x01	; 1
    1354:	60 e0       	ldi	r22, 0x00	; 0
    1356:	01 97       	sbiw	r24, 0x01	; 1
    1358:	0e 94 84 17 	call	0x2f08	; 0x2f08 <memcpy>
    135c:	6e 01       	movw	r12, r28
    135e:	f0 e8       	ldi	r31, 0x80	; 128
    1360:	ef 2e       	mov	r14, r31
    1362:	8e 2d       	mov	r24, r14
    1364:	b6 01       	movw	r22, r12
    1366:	0e 94 cd 17 	call	0x2f9a	; 0x2f9a <uart0_sendString>
			if (validar_set_time(comando,&hhin,&mmin,&ssin)){
    136a:	0f e8       	ldi	r16, 0x8F	; 143
    136c:	12 e0       	ldi	r17, 0x02	; 2
    136e:	2d e8       	ldi	r18, 0x8D	; 141
    1370:	32 e0       	ldi	r19, 0x02	; 2
    1372:	41 e8       	ldi	r20, 0x81	; 129
    1374:	51 e0       	ldi	r21, 0x01	; 1
    1376:	8e 2d       	mov	r24, r14
    1378:	b6 01       	movw	r22, r12
    137a:	0e 94 b3 0f 	call	0x1f66	; 0x1f66 <validar_set_time>
    137e:	88 23       	and	r24, r24
    1380:	49 f0       	breq	.+18     	; 0x1394 <main+0x242>
				rtc_set_time(hhin,mmin,ssin);
    1382:	40 91 8f 02 	lds	r20, 0x028F	; 0x80028f <ssin>
    1386:	60 91 8d 02 	lds	r22, 0x028D	; 0x80028d <mmin>
    138a:	80 91 81 01 	lds	r24, 0x0181	; 0x800181 <hhin>
    138e:	0e 94 63 16 	call	0x2cc6	; 0x2cc6 <rtc_set_time>
    1392:	fb ce       	rjmp	.-522    	; 0x118a <main+0x38>
			}
			else if (validar_set_tm(comando,&seg)){
    1394:	4e ee       	ldi	r20, 0xEE	; 238
    1396:	52 e0       	ldi	r21, 0x02	; 2
    1398:	8e 2d       	mov	r24, r14
    139a:	b6 01       	movw	r22, r12
    139c:	0e 94 bd 14 	call	0x297a	; 0x297a <validar_set_tm>
    13a0:	88 23       	and	r24, r24
    13a2:	59 f0       	breq	.+22     	; 0x13ba <main+0x268>
				intervalo_T = 100*seg;
    13a4:	80 91 ee 02 	lds	r24, 0x02EE	; 0x8002ee <seg>
    13a8:	24 e6       	ldi	r18, 0x64	; 100
    13aa:	82 9f       	mul	r24, r18
    13ac:	c0 01       	movw	r24, r0
    13ae:	11 24       	eor	r1, r1
    13b0:	90 93 ea 02 	sts	0x02EA, r25	; 0x8002ea <intervalo_T+0x1>
    13b4:	80 93 e9 02 	sts	0x02E9, r24	; 0x8002e9 <intervalo_T>
    13b8:	e8 ce       	rjmp	.-560    	; 0x118a <main+0x38>
			}
			else {
				while(error_tx_lleno);
    13ba:	80 91 f1 02 	lds	r24, 0x02F1	; 0x8002f1 <error_tx_lleno>
    13be:	81 11       	cpse	r24, r1
    13c0:	fc cf       	rjmp	.-8      	; 0x13ba <main+0x268>
				uart0_sendString("COMANDO INVALIDO\r\n");
    13c2:	6a ea       	ldi	r22, 0xAA	; 170
    13c4:	71 e0       	ldi	r23, 0x01	; 1
    13c6:	80 e0       	ldi	r24, 0x00	; 0
    13c8:	0e 94 cd 17 	call	0x2f9a	; 0x2f9a <uart0_sendString>
    13cc:	de ce       	rjmp	.-580    	; 0x118a <main+0x38>

Disassembly of section .text.timer1_init:

00003090 <timer1_init>:
#include <avr/interrupt.h>

static volatile uint16_t cont_ms = 0;

void timer1_init(void) {
	TCCR1A = 0;
    3090:	10 92 80 00 	sts	0x0080, r1	; 0x800080 <__TEXT_REGION_LENGTH__+0x7f8080>
	TCCR1B = 0;
    3094:	e1 e8       	ldi	r30, 0x81	; 129
    3096:	f0 e0       	ldi	r31, 0x00	; 0
    3098:	10 82       	st	Z, r1
	// Modo CTC, prescaler 8
	TCCR1B |= (1 << WGM12) | (1 << CS11);
    309a:	80 81       	ld	r24, Z
    309c:	8a 60       	ori	r24, 0x0A	; 10
    309e:	80 83       	st	Z, r24

	// 16MHz / 8 / 20000 = 100Hz → 1ms por interrupción
	OCR1A = 19999;
    30a0:	8f e1       	ldi	r24, 0x1F	; 31
    30a2:	9e e4       	ldi	r25, 0x4E	; 78
    30a4:	90 93 89 00 	sts	0x0089, r25	; 0x800089 <__TEXT_REGION_LENGTH__+0x7f8089>
    30a8:	80 93 88 00 	sts	0x0088, r24	; 0x800088 <__TEXT_REGION_LENGTH__+0x7f8088>

	TIMSK1 = (1 << OCIE1A);  // interrupción por comparación A
    30ac:	82 e0       	ldi	r24, 0x02	; 2
    30ae:	80 93 6f 00 	sts	0x006F, r24	; 0x80006f <__TEXT_REGION_LENGTH__+0x7f806f>
    30b2:	08 95       	ret

Disassembly of section .text.__vector_11:

00002560 <__vector_11>:
}

ISR(TIMER1_COMPA_vect) {
    2560:	1f 92       	push	r1
    2562:	0f 92       	push	r0
    2564:	0f b6       	in	r0, 0x3f	; 63
    2566:	0f 92       	push	r0
    2568:	11 24       	eor	r1, r1
    256a:	2f 93       	push	r18
    256c:	3f 93       	push	r19
    256e:	4f 93       	push	r20
    2570:	5f 93       	push	r21
    2572:	6f 93       	push	r22
    2574:	7f 93       	push	r23
    2576:	8f 93       	push	r24
    2578:	9f 93       	push	r25
    257a:	af 93       	push	r26
    257c:	bf 93       	push	r27
    257e:	ef 93       	push	r30
    2580:	ff 93       	push	r31
	cont_ms++;
    2582:	80 91 eb 02 	lds	r24, 0x02EB	; 0x8002eb <cont_ms>
    2586:	90 91 ec 02 	lds	r25, 0x02EC	; 0x8002ec <cont_ms+0x1>
    258a:	01 96       	adiw	r24, 0x01	; 1
    258c:	90 93 ec 02 	sts	0x02EC, r25	; 0x8002ec <cont_ms+0x1>
    2590:	80 93 eb 02 	sts	0x02EB, r24	; 0x8002eb <cont_ms>
	espera_30ms++;
    2594:	80 91 f4 02 	lds	r24, 0x02F4	; 0x8002f4 <espera_30ms>
    2598:	8f 5f       	subi	r24, 0xFF	; 255
    259a:	80 93 f4 02 	sts	0x02F4, r24	; 0x8002f4 <espera_30ms>
	if (cont_ms >= intervalo_T) {
    259e:	20 91 eb 02 	lds	r18, 0x02EB	; 0x8002eb <cont_ms>
    25a2:	30 91 ec 02 	lds	r19, 0x02EC	; 0x8002ec <cont_ms+0x1>
    25a6:	80 91 e9 02 	lds	r24, 0x02E9	; 0x8002e9 <intervalo_T>
    25aa:	90 91 ea 02 	lds	r25, 0x02EA	; 0x8002ea <intervalo_T+0x1>
    25ae:	28 17       	cp	r18, r24
    25b0:	39 07       	cpc	r19, r25
    25b2:	78 f0       	brcs	.+30     	; 0x25d2 <__vector_11+0x72>
		flag_timer1=1;
    25b4:	81 e0       	ldi	r24, 0x01	; 1
    25b6:	80 93 f5 02 	sts	0x02F5, r24	; 0x8002f5 <flag_timer1>
		cont_ms = 0;
    25ba:	10 92 ec 02 	sts	0x02EC, r1	; 0x8002ec <cont_ms+0x1>
    25be:	10 92 eb 02 	sts	0x02EB, r1	; 0x8002eb <cont_ms>
		rtc_get_time(&hh,&mm,&ss);
    25c2:	4c e0       	ldi	r20, 0x0C	; 12
    25c4:	52 e0       	ldi	r21, 0x02	; 2
    25c6:	60 e8       	ldi	r22, 0x80	; 128
    25c8:	71 e0       	ldi	r23, 0x01	; 1
    25ca:	80 ee       	ldi	r24, 0xE0	; 224
    25cc:	92 e0       	ldi	r25, 0x02	; 2
    25ce:	0e 94 8a 13 	call	0x2714	; 0x2714 <rtc_get_time>
	}
    25d2:	ff 91       	pop	r31
    25d4:	ef 91       	pop	r30
    25d6:	bf 91       	pop	r27
    25d8:	af 91       	pop	r26
    25da:	9f 91       	pop	r25
    25dc:	8f 91       	pop	r24
    25de:	7f 91       	pop	r23
    25e0:	6f 91       	pop	r22
    25e2:	5f 91       	pop	r21
    25e4:	4f 91       	pop	r20
    25e6:	3f 91       	pop	r19
    25e8:	2f 91       	pop	r18
    25ea:	0f 90       	pop	r0
    25ec:	0f be       	out	0x3f, r0	; 63
    25ee:	0f 90       	pop	r0
    25f0:	1f 90       	pop	r1
    25f2:	18 95       	reti

Disassembly of section .text.uart0_init:

00003186 <uart0_init>:


void uart0_init(void){
	//función de inicialización de uart
	
	UCSR0C = (1<<UCSZ01)|(1<<UCSZ00);	 //configura formato 8N1
    3186:	86 e0       	ldi	r24, 0x06	; 6
    3188:	80 93 c2 00 	sts	0x00C2, r24	; 0x8000c2 <__TEXT_REGION_LENGTH__+0x7f80c2>
	UBRR0L = 103;						 //configura BAUDRATE = 9600bps@16MHz
    318c:	87 e6       	ldi	r24, 0x67	; 103
    318e:	80 93 c4 00 	sts	0x00C4, r24	; 0x8000c4 <__TEXT_REGION_LENGTH__+0x7f80c4>
	UCSR0B = (1 << TXEN0) | (1 << RXEN0) | (1 << RXCIE0);	// Activa el Transmisor del Puerto Serie
    3192:	88 e9       	ldi	r24, 0x98	; 152
    3194:	80 93 c1 00 	sts	0x00C1, r24	; 0x8000c1 <__TEXT_REGION_LENGTH__+0x7f80c1>
    3198:	08 95       	ret

Disassembly of section .text.uart0_sendString:

00002f9a <uart0_sendString>:
}

void uart0_sendString(const char* str){
	error_tx_lleno=1;
    2f9a:	91 e0       	ldi	r25, 0x01	; 1
    2f9c:	90 93 f1 02 	sts	0x02F1, r25	; 0x8002f1 <error_tx_lleno>
	if (UCSR0B & (1 << UDRIE0)) {
    2fa0:	90 91 c1 00 	lds	r25, 0x00C1	; 0x8000c1 <__TEXT_REGION_LENGTH__+0x7f80c1>
    2fa4:	95 fd       	sbrc	r25, 5
    2fa6:	0f c0       	rjmp	.+30     	; 0x2fc6 <uart0_sendString+0x2c>
    2fa8:	ab 01       	movw	r20, r22
    2faa:	68 2f       	mov	r22, r24
		return 2; // No se pudo mandar porque el buffer TX estaba lleno
	}
	//función para guardar en un buffer el string y enviarlo de a poco
	strncpy(buffer_tx, str, BUFFER_SIZE - 1);
    2fac:	2f e7       	ldi	r18, 0x7F	; 127
    2fae:	30 e0       	ldi	r19, 0x00	; 0
    2fb0:	8d e0       	ldi	r24, 0x0D	; 13
    2fb2:	92 e0       	ldi	r25, 0x02	; 2
    2fb4:	0e 94 3d 16 	call	0x2c7a	; 0x2c7a <strncpy>
	// Nos aseguramos de que termine con el caracter nulo
	buffer_rx[BUFFER_SIZE - 1] = '\0';
    2fb8:	10 92 0b 02 	sts	0x020B, r1	; 0x80020b <buffer_rx+0x7f>
	
	UCSR0B |= (1<<UDRIE0);
    2fbc:	e1 ec       	ldi	r30, 0xC1	; 193
    2fbe:	f0 e0       	ldi	r31, 0x00	; 0
    2fc0:	80 81       	ld	r24, Z
    2fc2:	80 62       	ori	r24, 0x20	; 32
    2fc4:	80 83       	st	Z, r24
    2fc6:	08 95       	ret

Disassembly of section .text.__vector_18:

00002796 <__vector_18>:
	
}

volatile uint8_t rx_index=0;

ISR(USART_RX_vect){
    2796:	1f 92       	push	r1
    2798:	0f 92       	push	r0
    279a:	0f b6       	in	r0, 0x3f	; 63
    279c:	0f 92       	push	r0
    279e:	11 24       	eor	r1, r1
    27a0:	8f 93       	push	r24
    27a2:	9f 93       	push	r25
    27a4:	ef 93       	push	r30
    27a6:	ff 93       	push	r31
	char datoRecibido= UDR0;
    27a8:	80 91 c6 00 	lds	r24, 0x00C6	; 0x8000c6 <__TEXT_REGION_LENGTH__+0x7f80c6>
	if (string_recibido_flag == 1) {
    27ac:	90 91 f3 02 	lds	r25, 0x02F3	; 0x8002f3 <string_recibido_flag>
    27b0:	91 30       	cpi	r25, 0x01	; 1
    27b2:	21 f4       	brne	.+8      	; 0x27bc <__vector_18+0x26>
		error_buffer_lleno = 1; // avisamos de buffer lleno, aun esta enviando
    27b4:	81 e0       	ldi	r24, 0x01	; 1
    27b6:	80 93 f2 02 	sts	0x02F2, r24	; 0x8002f2 <error_buffer_lleno>
		return;
    27ba:	23 c0       	rjmp	.+70     	; 0x2802 <__vector_18+0x6c>
	}
	
	if(datoRecibido != '\n' && datoRecibido != '\r'){
    27bc:	8a 30       	cpi	r24, 0x0A	; 10
    27be:	91 f0       	breq	.+36     	; 0x27e4 <__vector_18+0x4e>
    27c0:	8d 30       	cpi	r24, 0x0D	; 13
    27c2:	81 f0       	breq	.+32     	; 0x27e4 <__vector_18+0x4e>
		if(rx_index< (BUFFER_SIZE - 1)){
    27c4:	90 91 f9 02 	lds	r25, 0x02F9	; 0x8002f9 <rx_index>
    27c8:	9f 37       	cpi	r25, 0x7F	; 127
    27ca:	d8 f4       	brcc	.+54     	; 0x2802 <__vector_18+0x6c>
			buffer_rx[rx_index] = datoRecibido;
    27cc:	e0 91 f9 02 	lds	r30, 0x02F9	; 0x8002f9 <rx_index>
    27d0:	f0 e0       	ldi	r31, 0x00	; 0
    27d2:	e4 57       	subi	r30, 0x74	; 116
    27d4:	fe 4f       	sbci	r31, 0xFE	; 254
    27d6:	80 83       	st	Z, r24
			rx_index++;
    27d8:	80 91 f9 02 	lds	r24, 0x02F9	; 0x8002f9 <rx_index>
    27dc:	8f 5f       	subi	r24, 0xFF	; 255
    27de:	80 93 f9 02 	sts	0x02F9, r24	; 0x8002f9 <rx_index>
    27e2:	0f c0       	rjmp	.+30     	; 0x2802 <__vector_18+0x6c>
		}
	}else{
		if (rx_index > 0) {
    27e4:	80 91 f9 02 	lds	r24, 0x02F9	; 0x8002f9 <rx_index>
    27e8:	88 23       	and	r24, r24
    27ea:	59 f0       	breq	.+22     	; 0x2802 <__vector_18+0x6c>
			buffer_rx[rx_index] = '\0';
    27ec:	e0 91 f9 02 	lds	r30, 0x02F9	; 0x8002f9 <rx_index>
    27f0:	f0 e0       	ldi	r31, 0x00	; 0
    27f2:	e4 57       	subi	r30, 0x74	; 116
    27f4:	fe 4f       	sbci	r31, 0xFE	; 254
    27f6:	10 82       	st	Z, r1
			string_recibido_flag = 1;
    27f8:	81 e0       	ldi	r24, 0x01	; 1
    27fa:	80 93 f3 02 	sts	0x02F3, r24	; 0x8002f3 <string_recibido_flag>
			rx_index = 0;
    27fe:	10 92 f9 02 	sts	0x02F9, r1	; 0x8002f9 <rx_index>
		}
	}
}
    2802:	ff 91       	pop	r31
    2804:	ef 91       	pop	r30
    2806:	9f 91       	pop	r25
    2808:	8f 91       	pop	r24
    280a:	0f 90       	pop	r0
    280c:	0f be       	out	0x3f, r0	; 63
    280e:	0f 90       	pop	r0
    2810:	1f 90       	pop	r1
    2812:	18 95       	reti

Disassembly of section .text.__vector_19:

00002b80 <__vector_19>:

volatile uint8_t tx_index=0;

ISR(USART_UDRE_vect){
    2b80:	1f 92       	push	r1
    2b82:	0f 92       	push	r0
    2b84:	0f b6       	in	r0, 0x3f	; 63
    2b86:	0f 92       	push	r0
    2b88:	11 24       	eor	r1, r1
    2b8a:	8f 93       	push	r24
    2b8c:	ef 93       	push	r30
    2b8e:	ff 93       	push	r31
	//interrupción de transmisión (el registro esta vacio)
	if(buffer_tx[tx_index]!='\0'){
    2b90:	e0 91 f8 02 	lds	r30, 0x02F8	; 0x8002f8 <tx_index>
    2b94:	f0 e0       	ldi	r31, 0x00	; 0
    2b96:	e3 5f       	subi	r30, 0xF3	; 243
    2b98:	fd 4f       	sbci	r31, 0xFD	; 253
    2b9a:	80 81       	ld	r24, Z
    2b9c:	88 23       	and	r24, r24
    2b9e:	71 f0       	breq	.+28     	; 0x2bbc <__vector_19+0x3c>
		UDR0 = buffer_tx[tx_index];
    2ba0:	e0 91 f8 02 	lds	r30, 0x02F8	; 0x8002f8 <tx_index>
    2ba4:	f0 e0       	ldi	r31, 0x00	; 0
    2ba6:	e3 5f       	subi	r30, 0xF3	; 243
    2ba8:	fd 4f       	sbci	r31, 0xFD	; 253
    2baa:	80 81       	ld	r24, Z
    2bac:	80 93 c6 00 	sts	0x00C6, r24	; 0x8000c6 <__TEXT_REGION_LENGTH__+0x7f80c6>
		tx_index++;
    2bb0:	80 91 f8 02 	lds	r24, 0x02F8	; 0x8002f8 <tx_index>
    2bb4:	8f 5f       	subi	r24, 0xFF	; 255
    2bb6:	80 93 f8 02 	sts	0x02F8, r24	; 0x8002f8 <tx_index>
    2bba:	09 c0       	rjmp	.+18     	; 0x2bce <__vector_19+0x4e>
	}else{
		tx_index=0;
    2bbc:	10 92 f8 02 	sts	0x02F8, r1	; 0x8002f8 <tx_index>
		UCSR0B &= ~(1 << UDRIE0); // cuando termina de transmitir, enmascara la interrupción y así evita el bucle infinito
    2bc0:	e1 ec       	ldi	r30, 0xC1	; 193
    2bc2:	f0 e0       	ldi	r31, 0x00	; 0
    2bc4:	80 81       	ld	r24, Z
    2bc6:	8f 7d       	andi	r24, 0xDF	; 223
    2bc8:	80 83       	st	Z, r24
		error_tx_lleno=0;
    2bca:	10 92 f1 02 	sts	0x02F1, r1	; 0x8002f1 <error_tx_lleno>
	}
    2bce:	ff 91       	pop	r31
    2bd0:	ef 91       	pop	r30
    2bd2:	8f 91       	pop	r24
    2bd4:	0f 90       	pop	r0
    2bd6:	0f be       	out	0x3f, r0	; 63
    2bd8:	0f 90       	pop	r0
    2bda:	1f 90       	pop	r1
    2bdc:	18 95       	reti

Disassembly of section .text.__dummy_fini:

00003254 <_fini>:
    3254:	08 95       	ret

Disassembly of section .text.__dummy_funcs_on_exit:

00003256 <__funcs_on_exit>:
    3256:	08 95       	ret

Disassembly of section .text.__dummy_simulator_exit:

00003258 <__simulator_exit>:
    3258:	08 95       	ret

Disassembly of section .text.exit:

0000315c <exit>:
    315c:	ec 01       	movw	r28, r24
    315e:	0e 94 2b 19 	call	0x3256	; 0x3256 <__funcs_on_exit>
    3162:	0e 94 2a 19 	call	0x3254	; 0x3254 <_fini>
    3166:	ce 01       	movw	r24, r28
    3168:	0e 94 2c 19 	call	0x3258	; 0x3258 <__simulator_exit>
    316c:	ce 01       	movw	r24, r28
    316e:	0e 94 28 19 	call	0x3250	; 0x3250 <_Exit>

Disassembly of section .text.__wrap_sprintf:

0000306a <_sprintf_cdopsuxX>:
    306a:	a0 e0       	ldi	r26, 0x00	; 0
    306c:	b0 e0       	ldi	r27, 0x00	; 0
    306e:	eb e3       	ldi	r30, 0x3B	; 59
    3070:	f8 e1       	ldi	r31, 0x18	; 24
    3072:	0c 94 5d 17 	jmp	0x2eba	; 0x2eba <__prologue_saves__+0x20>
    3076:	9e 01       	movw	r18, r28
    3078:	26 5f       	subi	r18, 0xF6	; 246
    307a:	3f 4f       	sbci	r19, 0xFF	; 255
    307c:	4f 81       	ldd	r20, Y+7	; 0x07
    307e:	58 85       	ldd	r21, Y+8	; 0x08
    3080:	69 85       	ldd	r22, Y+9	; 0x09
    3082:	8d 81       	ldd	r24, Y+5	; 0x05
    3084:	9e 81       	ldd	r25, Y+6	; 0x06
    3086:	0e 94 97 18 	call	0x312e	; 0x312e <__vsprintf>
    308a:	e2 e0       	ldi	r30, 0x02	; 2
    308c:	0c 94 79 17 	jmp	0x2ef2	; 0x2ef2 <__epilogue_restores__+0x20>

Disassembly of section .text.__wrap_sscanf:

00002d0c <_sscanf_cdnopuxX>:
    2d0c:	a1 e1       	ldi	r26, 0x11	; 17
    2d0e:	b0 e0       	ldi	r27, 0x00	; 0
    2d10:	ec e8       	ldi	r30, 0x8C	; 140
    2d12:	f6 e1       	ldi	r31, 0x16	; 22
    2d14:	0c 94 5d 17 	jmp	0x2eba	; 0x2eba <__prologue_saves__+0x20>
    2d18:	ce 01       	movw	r24, r28
    2d1a:	01 96       	adiw	r24, 0x01	; 1
    2d1c:	21 e1       	ldi	r18, 0x11	; 17
    2d1e:	fc 01       	movw	r30, r24
    2d20:	11 92       	st	Z+, r1
    2d22:	2a 95       	dec	r18
    2d24:	e9 f7       	brne	.-6      	; 0x2d20 <_sscanf_cdnopuxX+0x14>
    2d26:	22 e0       	ldi	r18, 0x02	; 2
    2d28:	31 e0       	ldi	r19, 0x01	; 1
    2d2a:	3a 83       	std	Y+2, r19	; 0x02
    2d2c:	29 83       	std	Y+1, r18	; 0x01
    2d2e:	2e 89       	ldd	r18, Y+22	; 0x16
    2d30:	3f 89       	ldd	r19, Y+23	; 0x17
    2d32:	48 8d       	ldd	r20, Y+24	; 0x18
    2d34:	2b 83       	std	Y+3, r18	; 0x03
    2d36:	3c 83       	std	Y+4, r19	; 0x04
    2d38:	4d 83       	std	Y+5, r20	; 0x05
    2d3a:	9e 01       	movw	r18, r28
    2d3c:	24 5e       	subi	r18, 0xE4	; 228
    2d3e:	3f 4f       	sbci	r19, 0xFF	; 255
    2d40:	49 8d       	ldd	r20, Y+25	; 0x19
    2d42:	5a 8d       	ldd	r21, Y+26	; 0x1a
    2d44:	6b 8d       	ldd	r22, Y+27	; 0x1b
    2d46:	0e 94 9d 17 	call	0x2f3a	; 0x2f3a <__vfscanf>
    2d4a:	61 96       	adiw	r28, 0x11	; 17
    2d4c:	e2 e0       	ldi	r30, 0x02	; 2
    2d4e:	0c 94 79 17 	jmp	0x2ef2	; 0x2ef2 <__epilogue_restores__+0x20>

Disassembly of section .text.__fmt_d:

00001b30 <__fmt_d>:
    1b30:	a2 e0       	ldi	r26, 0x02	; 2
    1b32:	b0 e0       	ldi	r27, 0x00	; 0
    1b34:	ee e9       	ldi	r30, 0x9E	; 158
    1b36:	fd e0       	ldi	r31, 0x0D	; 13
    1b38:	0c 94 4d 17 	jmp	0x2e9a	; 0x2e9a <__prologue_saves__>
    1b3c:	4c 01       	movw	r8, r24
    1b3e:	6b 01       	movw	r12, r22
    1b40:	fb 01       	movw	r30, r22
    1b42:	22 81       	ldd	r18, Z+2	; 0x02
    1b44:	33 81       	ldd	r19, Z+3	; 0x03
    1b46:	a4 80       	ldd	r10, Z+4	; 0x04
    1b48:	b5 80       	ldd	r11, Z+5	; 0x05
    1b4a:	80 81       	ld	r24, Z
    1b4c:	91 81       	ldd	r25, Z+1	; 0x01
    1b4e:	9a 83       	std	Y+2, r25	; 0x02
    1b50:	89 83       	std	Y+1, r24	; 0x01
    1b52:	66 80       	ldd	r6, Z+6	; 0x06
    1b54:	77 80       	ldd	r7, Z+7	; 0x07
    1b56:	fa 01       	movw	r30, r20
    1b58:	20 80       	ld	r2, Z
    1b5a:	31 80       	ldd	r3, Z+1	; 0x01
    1b5c:	42 80       	ldd	r4, Z+2	; 0x02
    1b5e:	53 80       	ldd	r5, Z+3	; 0x03
    1b60:	b2 01       	movw	r22, r4
    1b62:	a1 01       	movw	r20, r2
    1b64:	57 fe       	sbrs	r5, 7
    1b66:	07 c0       	rjmp	.+14     	; 0x1b76 <__fmt_d+0x46>
    1b68:	44 27       	eor	r20, r20
    1b6a:	55 27       	eor	r21, r21
    1b6c:	ba 01       	movw	r22, r20
    1b6e:	42 19       	sub	r20, r2
    1b70:	53 09       	sbc	r21, r3
    1b72:	64 09       	sbc	r22, r4
    1b74:	75 09       	sbc	r23, r5
    1b76:	37 fd       	sbrc	r19, 7
    1b78:	03 c0       	rjmp	.+6      	; 0x1b80 <__fmt_d+0x50>
    1b7a:	8d 7f       	andi	r24, 0xFD	; 253
    1b7c:	9a 83       	std	Y+2, r25	; 0x02
    1b7e:	89 83       	std	Y+1, r24	; 0x01
    1b80:	95 01       	movw	r18, r10
    1b82:	57 fc       	sbrc	r5, 7
    1b84:	05 c0       	rjmp	.+10     	; 0x1b90 <__fmt_d+0x60>
    1b86:	89 81       	ldd	r24, Y+1	; 0x01
    1b88:	82 fd       	sbrc	r24, 2
    1b8a:	02 c0       	rjmp	.+4      	; 0x1b90 <__fmt_d+0x60>
    1b8c:	83 ff       	sbrs	r24, 3
    1b8e:	02 c0       	rjmp	.+4      	; 0x1b94 <__fmt_d+0x64>
    1b90:	21 50       	subi	r18, 0x01	; 1
    1b92:	31 09       	sbc	r19, r1
    1b94:	ce 01       	movw	r24, r28
    1b96:	01 96       	adiw	r24, 0x01	; 1
    1b98:	7c 01       	movw	r14, r24
    1b9a:	0a e0       	ldi	r16, 0x0A	; 10
    1b9c:	10 e0       	ldi	r17, 0x00	; 0
    1b9e:	c6 01       	movw	r24, r12
    1ba0:	0e 94 18 10 	call	0x2030	; 0x2030 <__cvt_u>
    1ba4:	57 fc       	sbrc	r5, 7
    1ba6:	03 c0       	rjmp	.+6      	; 0x1bae <__fmt_d+0x7e>
    1ba8:	29 81       	ldd	r18, Y+1	; 0x01
    1baa:	22 ff       	sbrs	r18, 2
    1bac:	0a c0       	rjmp	.+20     	; 0x1bc2 <__fmt_d+0x92>
    1bae:	01 97       	sbiw	r24, 0x01	; 1
    1bb0:	f3 01       	movw	r30, r6
    1bb2:	e8 0f       	add	r30, r24
    1bb4:	f9 1f       	adc	r31, r25
    1bb6:	57 fc       	sbrc	r5, 7
    1bb8:	02 c0       	rjmp	.+4      	; 0x1bbe <__fmt_d+0x8e>
    1bba:	2b e2       	ldi	r18, 0x2B	; 43
    1bbc:	09 c0       	rjmp	.+18     	; 0x1bd0 <__fmt_d+0xa0>
    1bbe:	2d e2       	ldi	r18, 0x2D	; 45
    1bc0:	07 c0       	rjmp	.+14     	; 0x1bd0 <__fmt_d+0xa0>
    1bc2:	23 ff       	sbrs	r18, 3
    1bc4:	06 c0       	rjmp	.+12     	; 0x1bd2 <__fmt_d+0xa2>
    1bc6:	01 97       	sbiw	r24, 0x01	; 1
    1bc8:	f3 01       	movw	r30, r6
    1bca:	e8 0f       	add	r30, r24
    1bcc:	f9 1f       	adc	r31, r25
    1bce:	20 e2       	ldi	r18, 0x20	; 32
    1bd0:	20 83       	st	Z, r18
    1bd2:	e9 80       	ldd	r14, Y+1	; 0x01
    1bd4:	fa 80       	ldd	r15, Y+2	; 0x02
    1bd6:	f6 01       	movw	r30, r12
    1bd8:	20 85       	ldd	r18, Z+8	; 0x08
    1bda:	31 85       	ldd	r19, Z+9	; 0x09
    1bdc:	21 50       	subi	r18, 0x01	; 1
    1bde:	31 09       	sbc	r19, r1
    1be0:	28 1b       	sub	r18, r24
    1be2:	39 0b       	sbc	r19, r25
    1be4:	86 0d       	add	r24, r6
    1be6:	97 1d       	adc	r25, r7
    1be8:	ac 01       	movw	r20, r24
    1bea:	60 e8       	ldi	r22, 0x80	; 128
    1bec:	85 01       	movw	r16, r10
    1bee:	c4 01       	movw	r24, r8
    1bf0:	0e 94 65 12 	call	0x24ca	; 0x24ca <__pad>
    1bf4:	9c 01       	movw	r18, r24
    1bf6:	f4 01       	movw	r30, r8
    1bf8:	80 81       	ld	r24, Z
    1bfa:	91 81       	ldd	r25, Z+1	; 0x01
    1bfc:	90 ff       	sbrs	r25, 0
    1bfe:	06 c0       	rjmp	.+12     	; 0x1c0c <__fmt_d+0xdc>
    1c00:	f6 01       	movw	r30, r12
    1c02:	82 81       	ldd	r24, Z+2	; 0x02
    1c04:	93 81       	ldd	r25, Z+3	; 0x03
    1c06:	82 17       	cp	r24, r18
    1c08:	93 07       	cpc	r25, r19
    1c0a:	0c f4       	brge	.+2      	; 0x1c0e <__fmt_d+0xde>
    1c0c:	c9 01       	movw	r24, r18
    1c0e:	22 96       	adiw	r28, 0x02	; 2
    1c10:	e2 e1       	ldi	r30, 0x12	; 18
    1c12:	0c 94 69 17 	jmp	0x2ed2	; 0x2ed2 <__epilogue_restores__>

Disassembly of section .text.__fmt_o:

000020fa <__fmt_o>:
    20fa:	a2 e0       	ldi	r26, 0x02	; 2
    20fc:	b0 e0       	ldi	r27, 0x00	; 0
    20fe:	e3 e8       	ldi	r30, 0x83	; 131
    2100:	f0 e1       	ldi	r31, 0x10	; 16
    2102:	0c 94 51 17 	jmp	0x2ea2	; 0x2ea2 <__prologue_saves__+0x8>
    2106:	5c 01       	movw	r10, r24
    2108:	6b 01       	movw	r12, r22
    210a:	fb 01       	movw	r30, r22
    210c:	22 81       	ldd	r18, Z+2	; 0x02
    210e:	33 81       	ldd	r19, Z+3	; 0x03
    2110:	84 80       	ldd	r8, Z+4	; 0x04
    2112:	95 80       	ldd	r9, Z+5	; 0x05
    2114:	80 81       	ld	r24, Z
    2116:	91 81       	ldd	r25, Z+1	; 0x01
    2118:	9a 83       	std	Y+2, r25	; 0x02
    211a:	89 83       	std	Y+1, r24	; 0x01
    211c:	66 80       	ldd	r6, Z+6	; 0x06
    211e:	77 80       	ldd	r7, Z+7	; 0x07
    2120:	37 fd       	sbrc	r19, 7
    2122:	03 c0       	rjmp	.+6      	; 0x212a <__fmt_o+0x30>
    2124:	8d 7f       	andi	r24, 0xFD	; 253
    2126:	9a 83       	std	Y+2, r25	; 0x02
    2128:	89 83       	std	Y+1, r24	; 0x01
    212a:	fa 01       	movw	r30, r20
    212c:	40 81       	ld	r20, Z
    212e:	51 81       	ldd	r21, Z+1	; 0x01
    2130:	62 81       	ldd	r22, Z+2	; 0x02
    2132:	73 81       	ldd	r23, Z+3	; 0x03
    2134:	ce 01       	movw	r24, r28
    2136:	01 96       	adiw	r24, 0x01	; 1
    2138:	7c 01       	movw	r14, r24
    213a:	08 e0       	ldi	r16, 0x08	; 8
    213c:	10 e0       	ldi	r17, 0x00	; 0
    213e:	94 01       	movw	r18, r8
    2140:	c6 01       	movw	r24, r12
    2142:	0e 94 18 10 	call	0x2030	; 0x2030 <__cvt_u>
    2146:	29 81       	ldd	r18, Y+1	; 0x01
    2148:	24 ff       	sbrs	r18, 4
    214a:	06 c0       	rjmp	.+12     	; 0x2158 <__fmt_o+0x5e>
    214c:	01 97       	sbiw	r24, 0x01	; 1
    214e:	f3 01       	movw	r30, r6
    2150:	e8 0f       	add	r30, r24
    2152:	f9 1f       	adc	r31, r25
    2154:	20 e3       	ldi	r18, 0x30	; 48
    2156:	20 83       	st	Z, r18
    2158:	29 81       	ldd	r18, Y+1	; 0x01
    215a:	23 ff       	sbrs	r18, 3
    215c:	06 c0       	rjmp	.+12     	; 0x216a <__fmt_o+0x70>
    215e:	01 97       	sbiw	r24, 0x01	; 1
    2160:	f3 01       	movw	r30, r6
    2162:	e8 0f       	add	r30, r24
    2164:	f9 1f       	adc	r31, r25
    2166:	20 e2       	ldi	r18, 0x20	; 32
    2168:	20 83       	st	Z, r18
    216a:	e9 80       	ldd	r14, Y+1	; 0x01
    216c:	fa 80       	ldd	r15, Y+2	; 0x02
    216e:	f6 01       	movw	r30, r12
    2170:	20 85       	ldd	r18, Z+8	; 0x08
    2172:	31 85       	ldd	r19, Z+9	; 0x09
    2174:	21 50       	subi	r18, 0x01	; 1
    2176:	31 09       	sbc	r19, r1
    2178:	28 1b       	sub	r18, r24
    217a:	39 0b       	sbc	r19, r25
    217c:	86 0d       	add	r24, r6
    217e:	97 1d       	adc	r25, r7
    2180:	ac 01       	movw	r20, r24
    2182:	60 e8       	ldi	r22, 0x80	; 128
    2184:	84 01       	movw	r16, r8
    2186:	c5 01       	movw	r24, r10
    2188:	0e 94 65 12 	call	0x24ca	; 0x24ca <__pad>
    218c:	9c 01       	movw	r18, r24
    218e:	f5 01       	movw	r30, r10
    2190:	80 81       	ld	r24, Z
    2192:	91 81       	ldd	r25, Z+1	; 0x01
    2194:	90 ff       	sbrs	r25, 0
    2196:	06 c0       	rjmp	.+12     	; 0x21a4 <__fmt_o+0xaa>
    2198:	f6 01       	movw	r30, r12
    219a:	82 81       	ldd	r24, Z+2	; 0x02
    219c:	93 81       	ldd	r25, Z+3	; 0x03
    219e:	82 17       	cp	r24, r18
    21a0:	93 07       	cpc	r25, r19
    21a2:	0c f4       	brge	.+2      	; 0x21a6 <__fmt_o+0xac>
    21a4:	c9 01       	movw	r24, r18
    21a6:	22 96       	adiw	r28, 0x02	; 2
    21a8:	ee e0       	ldi	r30, 0x0E	; 14
    21aa:	0c 94 6d 17 	jmp	0x2eda	; 0x2eda <__epilogue_restores__+0x8>

Disassembly of section .text.__fmt_s:

00002814 <__fmt_s>:
    2814:	6f 92       	push	r6
    2816:	7f 92       	push	r7
    2818:	8f 92       	push	r8
    281a:	cf 92       	push	r12
    281c:	df 92       	push	r13
    281e:	ef 92       	push	r14
    2820:	ff 92       	push	r15
    2822:	0f 93       	push	r16
    2824:	1f 93       	push	r17
    2826:	cf 93       	push	r28
    2828:	df 93       	push	r29
    282a:	6c 01       	movw	r12, r24
    282c:	fb 01       	movw	r30, r22
    282e:	39 01       	movw	r6, r18
    2830:	84 2e       	mov	r8, r20
    2832:	c8 01       	movw	r24, r16
    2834:	c2 81       	ldd	r28, Z+2	; 0x02
    2836:	d3 81       	ldd	r29, Z+3	; 0x03
    2838:	04 81       	ldd	r16, Z+4	; 0x04
    283a:	15 81       	ldd	r17, Z+5	; 0x05
    283c:	e0 80       	ld	r14, Z
    283e:	f1 80       	ldd	r15, Z+1	; 0x01
    2840:	23 2b       	or	r18, r19
    2842:	24 2b       	or	r18, r20
    2844:	31 f4       	brne	.+12     	; 0x2852 <__fmt_s+0x3e>
    2846:	23 ed       	ldi	r18, 0xD3	; 211
    2848:	62 2e       	mov	r6, r18
    284a:	21 e0       	ldi	r18, 0x01	; 1
    284c:	72 2e       	mov	r7, r18
    284e:	20 e0       	ldi	r18, 0x00	; 0
    2850:	82 2e       	mov	r8, r18
    2852:	00 97       	sbiw	r24, 0x00	; 0
    2854:	21 f4       	brne	.+8      	; 0x285e <__fmt_s+0x4a>
    2856:	88 2d       	mov	r24, r8
    2858:	b3 01       	movw	r22, r6
    285a:	0e 94 e4 17 	call	0x2fc8	; 0x2fc8 <strlen>
    285e:	d7 fd       	sbrc	r29, 7
    2860:	04 c0       	rjmp	.+8      	; 0x286a <__fmt_s+0x56>
    2862:	c8 17       	cp	r28, r24
    2864:	d9 07       	cpc	r29, r25
    2866:	08 f4       	brcc	.+2      	; 0x286a <__fmt_s+0x56>
    2868:	ce 01       	movw	r24, r28
    286a:	9c 01       	movw	r18, r24
    286c:	68 2d       	mov	r22, r8
    286e:	a3 01       	movw	r20, r6
    2870:	c6 01       	movw	r24, r12
    2872:	0e 94 65 12 	call	0x24ca	; 0x24ca <__pad>
    2876:	df 91       	pop	r29
    2878:	cf 91       	pop	r28
    287a:	1f 91       	pop	r17
    287c:	0f 91       	pop	r16
    287e:	ff 90       	pop	r15
    2880:	ef 90       	pop	r14
    2882:	df 90       	pop	r13
    2884:	cf 90       	pop	r12
    2886:	8f 90       	pop	r8
    2888:	7f 90       	pop	r7
    288a:	6f 90       	pop	r6
    288c:	08 95       	ret

Disassembly of section .text.__cvt_u:

00002030 <__cvt_u>:
    2030:	a0 e0       	ldi	r26, 0x00	; 0
    2032:	b0 e0       	ldi	r27, 0x00	; 0
    2034:	ee e1       	ldi	r30, 0x1E	; 30
    2036:	f0 e1       	ldi	r31, 0x10	; 16
    2038:	0c 94 4f 17 	jmp	0x2e9e	; 0x2e9e <__prologue_saves__+0x4>
    203c:	dc 01       	movw	r26, r24
    203e:	28 01       	movw	r4, r16
    2040:	16 96       	adiw	r26, 0x06	; 6
    2042:	ad 90       	ld	r10, X+
    2044:	bc 90       	ld	r11, X
    2046:	17 97       	sbiw	r26, 0x07	; 7
    2048:	f7 01       	movw	r30, r14
    204a:	80 81       	ld	r24, Z
    204c:	91 81       	ldd	r25, Z+1	; 0x01
    204e:	12 96       	adiw	r26, 0x02	; 2
    2050:	ed 91       	ld	r30, X+
    2052:	fc 91       	ld	r31, X
    2054:	13 97       	sbiw	r26, 0x03	; 3
    2056:	18 96       	adiw	r26, 0x08	; 8
    2058:	cd 91       	ld	r28, X+
    205a:	dc 91       	ld	r29, X
    205c:	19 97       	sbiw	r26, 0x09	; 9
    205e:	21 97       	sbiw	r28, 0x01	; 1
    2060:	f7 ff       	sbrs	r31, 7
    2062:	02 c0       	rjmp	.+4      	; 0x2068 <__cvt_u+0x38>
    2064:	e1 e0       	ldi	r30, 0x01	; 1
    2066:	f0 e0       	ldi	r31, 0x00	; 0
    2068:	ca 0d       	add	r28, r10
    206a:	db 1d       	adc	r29, r11
    206c:	18 82       	st	Y, r1
    206e:	69 01       	movw	r12, r18
    2070:	a1 e0       	ldi	r26, 0x01	; 1
    2072:	b0 e0       	ldi	r27, 0x00	; 0
    2074:	8f 01       	movw	r16, r30
    2076:	02 1b       	sub	r16, r18
    2078:	13 0b       	sbc	r17, r19
    207a:	4c 01       	movw	r8, r24
    207c:	f2 e0       	ldi	r31, 0x02	; 2
    207e:	8f 22       	and	r8, r31
    2080:	99 24       	eor	r9, r9
    2082:	05 2c       	mov	r0, r5
    2084:	00 0c       	add	r0, r0
    2086:	66 08       	sbc	r6, r6
    2088:	77 08       	sbc	r7, r7
    208a:	ce 01       	movw	r24, r28
    208c:	8a 19       	sub	r24, r10
    208e:	9b 09       	sbc	r25, r11
    2090:	ca 15       	cp	r28, r10
    2092:	db 05       	cpc	r29, r11
    2094:	19 f1       	breq	.+70     	; 0x20dc <__cvt_u+0xac>
    2096:	41 15       	cp	r20, r1
    2098:	51 05       	cpc	r21, r1
    209a:	61 05       	cpc	r22, r1
    209c:	71 05       	cpc	r23, r1
    209e:	89 f0       	breq	.+34     	; 0x20c2 <__cvt_u+0x92>
    20a0:	cb 01       	movw	r24, r22
    20a2:	ba 01       	movw	r22, r20
    20a4:	a3 01       	movw	r20, r6
    20a6:	92 01       	movw	r18, r4
    20a8:	0e 94 cc 16 	call	0x2d98	; 0x2d98 <__udivmodsi4>
    20ac:	ca 01       	movw	r24, r20
    20ae:	a6 2f       	mov	r26, r22
    20b0:	b7 2f       	mov	r27, r23
    20b2:	60 5d       	subi	r22, 0xD0	; 208
    20b4:	6a 93       	st	-Y, r22
    20b6:	41 e0       	ldi	r20, 0x01	; 1
    20b8:	c4 1a       	sub	r12, r20
    20ba:	d1 08       	sbc	r13, r1
    20bc:	a9 01       	movw	r20, r18
    20be:	bc 01       	movw	r22, r24
    20c0:	e4 cf       	rjmp	.-56     	; 0x208a <__cvt_u+0x5a>
    20c2:	98 01       	movw	r18, r16
    20c4:	2c 0d       	add	r18, r12
    20c6:	3d 1d       	adc	r19, r13
    20c8:	12 16       	cp	r1, r18
    20ca:	13 06       	cpc	r1, r19
    20cc:	4c f3       	brlt	.-46     	; 0x20a0 <__cvt_u+0x70>
    20ce:	1c 14       	cp	r1, r12
    20d0:	1d 04       	cpc	r1, r13
    20d2:	34 f4       	brge	.+12     	; 0x20e0 <__cvt_u+0xb0>
    20d4:	81 14       	cp	r8, r1
    20d6:	91 04       	cpc	r9, r1
    20d8:	19 f7       	brne	.-58     	; 0x20a0 <__cvt_u+0x70>
    20da:	02 c0       	rjmp	.+4      	; 0x20e0 <__cvt_u+0xb0>
    20dc:	80 e0       	ldi	r24, 0x00	; 0
    20de:	90 e0       	ldi	r25, 0x00	; 0
    20e0:	ab 2b       	or	r26, r27
    20e2:	31 f4       	brne	.+12     	; 0x20f0 <__cvt_u+0xc0>
    20e4:	f7 01       	movw	r30, r14
    20e6:	20 81       	ld	r18, Z
    20e8:	31 81       	ldd	r19, Z+1	; 0x01
    20ea:	2f 7e       	andi	r18, 0xEF	; 239
    20ec:	31 83       	std	Z+1, r19	; 0x01
    20ee:	20 83       	st	Z, r18
    20f0:	cd b7       	in	r28, 0x3d	; 61
    20f2:	de b7       	in	r29, 0x3e	; 62
    20f4:	e0 e1       	ldi	r30, 0x10	; 16
    20f6:	0c 94 6b 17 	jmp	0x2ed6	; 0x2ed6 <__epilogue_restores__+0x4>

Disassembly of section .text.__fmt_u:

000025f4 <__fmt_u>:
    25f4:	a2 e0       	ldi	r26, 0x02	; 2
    25f6:	b0 e0       	ldi	r27, 0x00	; 0
    25f8:	e0 e0       	ldi	r30, 0x00	; 0
    25fa:	f3 e1       	ldi	r31, 0x13	; 19
    25fc:	0c 94 51 17 	jmp	0x2ea2	; 0x2ea2 <__prologue_saves__+0x8>
    2600:	5c 01       	movw	r10, r24
    2602:	6b 01       	movw	r12, r22
    2604:	fb 01       	movw	r30, r22
    2606:	22 81       	ldd	r18, Z+2	; 0x02
    2608:	33 81       	ldd	r19, Z+3	; 0x03
    260a:	84 80       	ldd	r8, Z+4	; 0x04
    260c:	95 80       	ldd	r9, Z+5	; 0x05
    260e:	80 81       	ld	r24, Z
    2610:	91 81       	ldd	r25, Z+1	; 0x01
    2612:	9a 83       	std	Y+2, r25	; 0x02
    2614:	89 83       	std	Y+1, r24	; 0x01
    2616:	66 80       	ldd	r6, Z+6	; 0x06
    2618:	77 80       	ldd	r7, Z+7	; 0x07
    261a:	37 fd       	sbrc	r19, 7
    261c:	03 c0       	rjmp	.+6      	; 0x2624 <__fmt_u+0x30>
    261e:	8d 7f       	andi	r24, 0xFD	; 253
    2620:	9a 83       	std	Y+2, r25	; 0x02
    2622:	89 83       	std	Y+1, r24	; 0x01
    2624:	fa 01       	movw	r30, r20
    2626:	40 81       	ld	r20, Z
    2628:	51 81       	ldd	r21, Z+1	; 0x01
    262a:	62 81       	ldd	r22, Z+2	; 0x02
    262c:	73 81       	ldd	r23, Z+3	; 0x03
    262e:	ce 01       	movw	r24, r28
    2630:	01 96       	adiw	r24, 0x01	; 1
    2632:	7c 01       	movw	r14, r24
    2634:	0a e0       	ldi	r16, 0x0A	; 10
    2636:	10 e0       	ldi	r17, 0x00	; 0
    2638:	94 01       	movw	r18, r8
    263a:	c6 01       	movw	r24, r12
    263c:	0e 94 18 10 	call	0x2030	; 0x2030 <__cvt_u>
    2640:	e9 80       	ldd	r14, Y+1	; 0x01
    2642:	fa 80       	ldd	r15, Y+2	; 0x02
    2644:	f6 01       	movw	r30, r12
    2646:	20 85       	ldd	r18, Z+8	; 0x08
    2648:	31 85       	ldd	r19, Z+9	; 0x09
    264a:	21 50       	subi	r18, 0x01	; 1
    264c:	31 09       	sbc	r19, r1
    264e:	28 1b       	sub	r18, r24
    2650:	39 0b       	sbc	r19, r25
    2652:	86 0d       	add	r24, r6
    2654:	97 1d       	adc	r25, r7
    2656:	ac 01       	movw	r20, r24
    2658:	60 e8       	ldi	r22, 0x80	; 128
    265a:	84 01       	movw	r16, r8
    265c:	c5 01       	movw	r24, r10
    265e:	0e 94 65 12 	call	0x24ca	; 0x24ca <__pad>
    2662:	9c 01       	movw	r18, r24
    2664:	f5 01       	movw	r30, r10
    2666:	80 81       	ld	r24, Z
    2668:	91 81       	ldd	r25, Z+1	; 0x01
    266a:	90 ff       	sbrs	r25, 0
    266c:	06 c0       	rjmp	.+12     	; 0x267a <__fmt_u+0x86>
    266e:	f6 01       	movw	r30, r12
    2670:	82 81       	ldd	r24, Z+2	; 0x02
    2672:	93 81       	ldd	r25, Z+3	; 0x03
    2674:	82 17       	cp	r24, r18
    2676:	93 07       	cpc	r25, r19
    2678:	0c f4       	brge	.+2      	; 0x267c <__fmt_u+0x88>
    267a:	c9 01       	movw	r24, r18
    267c:	22 96       	adiw	r28, 0x02	; 2
    267e:	ee e0       	ldi	r30, 0x0E	; 14
    2680:	0c 94 6d 17 	jmp	0x2eda	; 0x2eda <__epilogue_restores__+0x8>

Disassembly of section .text.__fmt_x:

000015b4 <__fmt_x>:
    15b4:	af e0       	ldi	r26, 0x0F	; 15
    15b6:	b0 e0       	ldi	r27, 0x00	; 0
    15b8:	e0 ee       	ldi	r30, 0xE0	; 224
    15ba:	fa e0       	ldi	r31, 0x0A	; 10
    15bc:	0c 94 4d 17 	jmp	0x2e9a	; 0x2e9a <__prologue_saves__>
    15c0:	1c 01       	movw	r2, r24
    15c2:	6b 01       	movw	r12, r22
    15c4:	5a 83       	std	Y+2, r21	; 0x02
    15c6:	49 83       	std	Y+1, r20	; 0x01
    15c8:	2b 83       	std	Y+3, r18	; 0x03
    15ca:	fb 01       	movw	r30, r22
    15cc:	82 81       	ldd	r24, Z+2	; 0x02
    15ce:	93 81       	ldd	r25, Z+3	; 0x03
    15d0:	84 80       	ldd	r8, Z+4	; 0x04
    15d2:	95 80       	ldd	r9, Z+5	; 0x05
    15d4:	e0 80       	ld	r14, Z
    15d6:	f1 80       	ldd	r15, Z+1	; 0x01
    15d8:	a6 80       	ldd	r10, Z+6	; 0x06
    15da:	b7 80       	ldd	r11, Z+7	; 0x07
    15dc:	97 fd       	sbrc	r25, 7
    15de:	03 c0       	rjmp	.+6      	; 0x15e6 <__fmt_x+0x32>
    15e0:	e8 94       	clt
    15e2:	e1 f8       	bld	r14, 1
    15e4:	02 c0       	rjmp	.+4      	; 0x15ea <__fmt_x+0x36>
    15e6:	81 e0       	ldi	r24, 0x01	; 1
    15e8:	90 e0       	ldi	r25, 0x00	; 0
    15ea:	e9 81       	ldd	r30, Y+1	; 0x01
    15ec:	fa 81       	ldd	r31, Y+2	; 0x02
    15ee:	40 80       	ld	r4, Z
    15f0:	51 80       	ldd	r5, Z+1	; 0x01
    15f2:	62 80       	ldd	r6, Z+2	; 0x02
    15f4:	73 80       	ldd	r7, Z+3	; 0x03
    15f6:	97 01       	movw	r18, r14
    15f8:	20 71       	andi	r18, 0x10	; 16
    15fa:	33 27       	eor	r19, r19
    15fc:	3d 83       	std	Y+5, r19	; 0x05
    15fe:	2c 83       	std	Y+4, r18	; 0x04
    1600:	84 01       	movw	r16, r8
    1602:	e4 fe       	sbrs	r14, 4
    1604:	07 c0       	rjmp	.+14     	; 0x1614 <__fmt_x+0x60>
    1606:	41 14       	cp	r4, r1
    1608:	51 04       	cpc	r5, r1
    160a:	61 04       	cpc	r6, r1
    160c:	71 04       	cpc	r7, r1
    160e:	11 f0       	breq	.+4      	; 0x1614 <__fmt_x+0x60>
    1610:	02 50       	subi	r16, 0x02	; 2
    1612:	11 09       	sbc	r17, r1
    1614:	f7 01       	movw	r30, r14
    1616:	e8 70       	andi	r30, 0x08	; 8
    1618:	ff 27       	eor	r31, r31
    161a:	ff 83       	std	Y+7, r31	; 0x07
    161c:	ee 83       	std	Y+6, r30	; 0x06
    161e:	e3 fe       	sbrs	r14, 3
    1620:	02 c0       	rjmp	.+4      	; 0x1626 <__fmt_x+0x72>
    1622:	01 50       	subi	r16, 0x01	; 1
    1624:	11 09       	sbc	r17, r1
    1626:	f6 01       	movw	r30, r12
    1628:	00 84       	ldd	r0, Z+8	; 0x08
    162a:	f1 85       	ldd	r31, Z+9	; 0x09
    162c:	e0 2d       	mov	r30, r0
    162e:	31 97       	sbiw	r30, 0x01	; 1
    1630:	ff 87       	std	Y+15, r31	; 0x0f
    1632:	ee 87       	std	Y+14, r30	; 0x0e
    1634:	ea 0d       	add	r30, r10
    1636:	fb 1d       	adc	r31, r11
    1638:	10 82       	st	Z, r1
    163a:	9c 01       	movw	r18, r24
    163c:	20 1b       	sub	r18, r16
    163e:	31 0b       	sbc	r19, r17
    1640:	39 87       	std	Y+9, r19	; 0x09
    1642:	28 87       	std	Y+8, r18	; 0x08
    1644:	c7 01       	movw	r24, r14
    1646:	82 70       	andi	r24, 0x02	; 2
    1648:	99 27       	eor	r25, r25
    164a:	9b 87       	std	Y+11, r25	; 0x0b
    164c:	8a 87       	std	Y+10, r24	; 0x0a
    164e:	eb 81       	ldd	r30, Y+3	; 0x03
    1650:	8e 2f       	mov	r24, r30
    1652:	ee 0f       	add	r30, r30
    1654:	99 0b       	sbc	r25, r25
    1656:	9c 01       	movw	r18, r24
    1658:	21 54       	subi	r18, 0x41	; 65
    165a:	31 09       	sbc	r19, r1
    165c:	3d 87       	std	Y+13, r19	; 0x0d
    165e:	2c 87       	std	Y+12, r18	; 0x0c
    1660:	2e 85       	ldd	r18, Y+14	; 0x0e
    1662:	3f 85       	ldd	r19, Y+15	; 0x0f
    1664:	22 30       	cpi	r18, 0x02	; 2
    1666:	31 05       	cpc	r19, r1
    1668:	30 f4       	brcc	.+12     	; 0x1676 <__fmt_x+0xc2>
    166a:	8c 81       	ldd	r24, Y+4	; 0x04
    166c:	9d 81       	ldd	r25, Y+5	; 0x05
    166e:	89 2b       	or	r24, r25
    1670:	09 f0       	breq	.+2      	; 0x1674 <__fmt_x+0xc0>
    1672:	41 c0       	rjmp	.+130    	; 0x16f6 <__fmt_x+0x142>
    1674:	5b c0       	rjmp	.+182    	; 0x172c <__fmt_x+0x178>
    1676:	41 14       	cp	r4, r1
    1678:	51 04       	cpc	r5, r1
    167a:	61 04       	cpc	r6, r1
    167c:	71 04       	cpc	r7, r1
    167e:	59 f1       	breq	.+86     	; 0x16d6 <__fmt_x+0x122>
    1680:	8e 85       	ldd	r24, Y+14	; 0x0e
    1682:	9f 85       	ldd	r25, Y+15	; 0x0f
    1684:	01 97       	sbiw	r24, 0x01	; 1
    1686:	9f 87       	std	Y+15, r25	; 0x0f
    1688:	8e 87       	std	Y+14, r24	; 0x0e
    168a:	c2 01       	movw	r24, r4
    168c:	8f 70       	andi	r24, 0x0F	; 15
    168e:	99 27       	eor	r25, r25
    1690:	8a 30       	cpi	r24, 0x0A	; 10
    1692:	91 05       	cpc	r25, r1
    1694:	14 f4       	brge	.+4      	; 0x169a <__fmt_x+0xe6>
    1696:	c0 96       	adiw	r24, 0x30	; 48
    1698:	02 c0       	rjmp	.+4      	; 0x169e <__fmt_x+0xea>
    169a:	89 5a       	subi	r24, 0xA9	; 169
    169c:	9f 4f       	sbci	r25, 0xFF	; 255
    169e:	ec 85       	ldd	r30, Y+12	; 0x0c
    16a0:	fd 85       	ldd	r31, Y+13	; 0x0d
    16a2:	7a 97       	sbiw	r30, 0x1a	; 26
    16a4:	48 f4       	brcc	.+18     	; 0x16b8 <__fmt_x+0x104>
    16a6:	9c 01       	movw	r18, r24
    16a8:	20 62       	ori	r18, 0x20	; 32
    16aa:	21 56       	subi	r18, 0x61	; 97
    16ac:	31 09       	sbc	r19, r1
    16ae:	2a 31       	cpi	r18, 0x1A	; 26
    16b0:	31 05       	cpc	r19, r1
    16b2:	10 f4       	brcc	.+4      	; 0x16b8 <__fmt_x+0x104>
    16b4:	0e 94 df 18 	call	0x31be	; 0x31be <toupper>
    16b8:	ee 85       	ldd	r30, Y+14	; 0x0e
    16ba:	ff 85       	ldd	r31, Y+15	; 0x0f
    16bc:	ea 0d       	add	r30, r10
    16be:	fb 1d       	adc	r31, r11
    16c0:	80 83       	st	Z, r24
    16c2:	01 50       	subi	r16, 0x01	; 1
    16c4:	11 09       	sbc	r17, r1
    16c6:	84 e0       	ldi	r24, 0x04	; 4
    16c8:	76 94       	lsr	r7
    16ca:	67 94       	ror	r6
    16cc:	57 94       	ror	r5
    16ce:	47 94       	ror	r4
    16d0:	8a 95       	dec	r24
    16d2:	d1 f7       	brne	.-12     	; 0x16c8 <__fmt_x+0x114>
    16d4:	c5 cf       	rjmp	.-118    	; 0x1660 <__fmt_x+0xac>
    16d6:	88 85       	ldd	r24, Y+8	; 0x08
    16d8:	99 85       	ldd	r25, Y+9	; 0x09
    16da:	80 0f       	add	r24, r16
    16dc:	91 1f       	adc	r25, r17
    16de:	18 16       	cp	r1, r24
    16e0:	19 06       	cpc	r1, r25
    16e2:	74 f2       	brlt	.-100    	; 0x1680 <__fmt_x+0xcc>
    16e4:	10 16       	cp	r1, r16
    16e6:	11 06       	cpc	r1, r17
    16e8:	0c f0       	brlt	.+2      	; 0x16ec <__fmt_x+0x138>
    16ea:	bf cf       	rjmp	.-130    	; 0x166a <__fmt_x+0xb6>
    16ec:	ea 85       	ldd	r30, Y+10	; 0x0a
    16ee:	fb 85       	ldd	r31, Y+11	; 0x0b
    16f0:	ef 2b       	or	r30, r31
    16f2:	31 f6       	brne	.-116    	; 0x1680 <__fmt_x+0xcc>
    16f4:	ba cf       	rjmp	.-140    	; 0x166a <__fmt_x+0xb6>
    16f6:	e9 81       	ldd	r30, Y+1	; 0x01
    16f8:	fa 81       	ldd	r31, Y+2	; 0x02
    16fa:	80 81       	ld	r24, Z
    16fc:	91 81       	ldd	r25, Z+1	; 0x01
    16fe:	a2 81       	ldd	r26, Z+2	; 0x02
    1700:	b3 81       	ldd	r27, Z+3	; 0x03
    1702:	89 2b       	or	r24, r25
    1704:	8a 2b       	or	r24, r26
    1706:	8b 2b       	or	r24, r27
    1708:	89 f0       	breq	.+34     	; 0x172c <__fmt_x+0x178>
    170a:	ee 85       	ldd	r30, Y+14	; 0x0e
    170c:	ff 85       	ldd	r31, Y+15	; 0x0f
    170e:	ea 0d       	add	r30, r10
    1710:	fb 1d       	adc	r31, r11
    1712:	31 97       	sbiw	r30, 0x01	; 1
    1714:	2b 81       	ldd	r18, Y+3	; 0x03
    1716:	20 83       	st	Z, r18
    1718:	8e 85       	ldd	r24, Y+14	; 0x0e
    171a:	9f 85       	ldd	r25, Y+15	; 0x0f
    171c:	02 97       	sbiw	r24, 0x02	; 2
    171e:	9f 87       	std	Y+15, r25	; 0x0f
    1720:	8e 87       	std	Y+14, r24	; 0x0e
    1722:	fc 01       	movw	r30, r24
    1724:	ea 0d       	add	r30, r10
    1726:	fb 1d       	adc	r31, r11
    1728:	80 e3       	ldi	r24, 0x30	; 48
    172a:	80 83       	st	Z, r24
    172c:	ee 81       	ldd	r30, Y+6	; 0x06
    172e:	ff 81       	ldd	r31, Y+7	; 0x07
    1730:	ef 2b       	or	r30, r31
    1732:	59 f0       	breq	.+22     	; 0x174a <__fmt_x+0x196>
    1734:	2e 85       	ldd	r18, Y+14	; 0x0e
    1736:	3f 85       	ldd	r19, Y+15	; 0x0f
    1738:	21 50       	subi	r18, 0x01	; 1
    173a:	31 09       	sbc	r19, r1
    173c:	3f 87       	std	Y+15, r19	; 0x0f
    173e:	2e 87       	std	Y+14, r18	; 0x0e
    1740:	f9 01       	movw	r30, r18
    1742:	ea 0d       	add	r30, r10
    1744:	fb 1d       	adc	r31, r11
    1746:	80 e2       	ldi	r24, 0x20	; 32
    1748:	80 83       	st	Z, r24
    174a:	f6 01       	movw	r30, r12
    174c:	20 85       	ldd	r18, Z+8	; 0x08
    174e:	31 85       	ldd	r19, Z+9	; 0x09
    1750:	21 50       	subi	r18, 0x01	; 1
    1752:	31 09       	sbc	r19, r1
    1754:	8e 85       	ldd	r24, Y+14	; 0x0e
    1756:	9f 85       	ldd	r25, Y+15	; 0x0f
    1758:	28 1b       	sub	r18, r24
    175a:	39 0b       	sbc	r19, r25
    175c:	8a 0d       	add	r24, r10
    175e:	9b 1d       	adc	r25, r11
    1760:	ac 01       	movw	r20, r24
    1762:	60 e8       	ldi	r22, 0x80	; 128
    1764:	84 01       	movw	r16, r8
    1766:	c1 01       	movw	r24, r2
    1768:	0e 94 65 12 	call	0x24ca	; 0x24ca <__pad>
    176c:	9c 01       	movw	r18, r24
    176e:	f1 01       	movw	r30, r2
    1770:	80 81       	ld	r24, Z
    1772:	91 81       	ldd	r25, Z+1	; 0x01
    1774:	90 ff       	sbrs	r25, 0
    1776:	06 c0       	rjmp	.+12     	; 0x1784 <__fmt_x+0x1d0>
    1778:	f6 01       	movw	r30, r12
    177a:	82 81       	ldd	r24, Z+2	; 0x02
    177c:	93 81       	ldd	r25, Z+3	; 0x03
    177e:	82 17       	cp	r24, r18
    1780:	93 07       	cpc	r25, r19
    1782:	0c f4       	brge	.+2      	; 0x1786 <__fmt_x+0x1d2>
    1784:	c9 01       	movw	r24, r18
    1786:	2f 96       	adiw	r28, 0x0f	; 15
    1788:	e2 e1       	ldi	r30, 0x12	; 18
    178a:	0c 94 69 17 	jmp	0x2ed2	; 0x2ed2 <__epilogue_restores__>

Disassembly of section .text.__pop_int:

00001c16 <__pop_int>:
    1c16:	cf 93       	push	r28
    1c18:	df 93       	push	r29
    1c1a:	dc 01       	movw	r26, r24
    1c1c:	f9 01       	movw	r30, r18
    1c1e:	68 38       	cpi	r22, 0x88	; 136
    1c20:	71 05       	cpc	r23, r1
    1c22:	f1 f0       	breq	.+60     	; 0x1c60 <__pop_int+0x4a>
    1c24:	5c f4       	brge	.+22     	; 0x1c3c <__pop_int+0x26>
    1c26:	61 38       	cpi	r22, 0x81	; 129
    1c28:	71 05       	cpc	r23, r1
    1c2a:	61 f1       	breq	.+88     	; 0x1c84 <__pop_int+0x6e>
    1c2c:	64 38       	cpi	r22, 0x84	; 132
    1c2e:	71 05       	cpc	r23, r1
    1c30:	c9 f1       	breq	.+114    	; 0x1ca4 <__pop_int+0x8e>
    1c32:	60 38       	cpi	r22, 0x80	; 128
    1c34:	71 05       	cpc	r23, r1
    1c36:	09 f0       	breq	.+2      	; 0x1c3a <__pop_int+0x24>
    1c38:	56 c0       	rjmp	.+172    	; 0x1ce6 <__pop_int+0xd0>
    1c3a:	34 c0       	rjmp	.+104    	; 0x1ca4 <__pop_int+0x8e>
    1c3c:	60 3c       	cpi	r22, 0xC0	; 192
    1c3e:	71 05       	cpc	r23, r1
    1c40:	61 f1       	breq	.+88     	; 0x1c9a <__pop_int+0x84>
    1c42:	60 3f       	cpi	r22, 0xF0	; 240
    1c44:	71 05       	cpc	r23, r1
    1c46:	09 f4       	brne	.+2      	; 0x1c4a <__pop_int+0x34>
    1c48:	43 c0       	rjmp	.+134    	; 0x1cd0 <__pop_int+0xba>
    1c4a:	60 3a       	cpi	r22, 0xA0	; 160
    1c4c:	71 05       	cpc	r23, r1
    1c4e:	09 f0       	breq	.+2      	; 0x1c52 <__pop_int+0x3c>
    1c50:	4a c0       	rjmp	.+148    	; 0x1ce6 <__pop_int+0xd0>
    1c52:	c0 81       	ld	r28, Z
    1c54:	d1 81       	ldd	r29, Z+1	; 0x01
    1c56:	ce 01       	movw	r24, r28
    1c58:	02 96       	adiw	r24, 0x02	; 2
    1c5a:	91 83       	std	Z+1, r25	; 0x01
    1c5c:	80 83       	st	Z, r24
    1c5e:	2a c0       	rjmp	.+84     	; 0x1cb4 <__pop_int+0x9e>
    1c60:	c0 81       	ld	r28, Z
    1c62:	d1 81       	ldd	r29, Z+1	; 0x01
    1c64:	ce 01       	movw	r24, r28
    1c66:	02 96       	adiw	r24, 0x02	; 2
    1c68:	91 83       	std	Z+1, r25	; 0x01
    1c6a:	80 83       	st	Z, r24
    1c6c:	45 2b       	or	r20, r21
    1c6e:	39 f0       	breq	.+14     	; 0x1c7e <__pop_int+0x68>
    1c70:	48 81       	ld	r20, Y
    1c72:	04 2e       	mov	r0, r20
    1c74:	00 0c       	add	r0, r0
    1c76:	55 0b       	sbc	r21, r21
    1c78:	66 0b       	sbc	r22, r22
    1c7a:	77 0b       	sbc	r23, r23
    1c7c:	21 c0       	rjmp	.+66     	; 0x1cc0 <__pop_int+0xaa>
    1c7e:	48 81       	ld	r20, Y
    1c80:	50 e0       	ldi	r21, 0x00	; 0
    1c82:	2e c0       	rjmp	.+92     	; 0x1ce0 <__pop_int+0xca>
    1c84:	c0 81       	ld	r28, Z
    1c86:	d1 81       	ldd	r29, Z+1	; 0x01
    1c88:	ce 01       	movw	r24, r28
    1c8a:	04 96       	adiw	r24, 0x04	; 4
    1c8c:	91 83       	std	Z+1, r25	; 0x01
    1c8e:	80 83       	st	Z, r24
    1c90:	48 81       	ld	r20, Y
    1c92:	59 81       	ldd	r21, Y+1	; 0x01
    1c94:	6a 81       	ldd	r22, Y+2	; 0x02
    1c96:	7b 81       	ldd	r23, Y+3	; 0x03
    1c98:	13 c0       	rjmp	.+38     	; 0x1cc0 <__pop_int+0xaa>
    1c9a:	c0 81       	ld	r28, Z
    1c9c:	d1 81       	ldd	r29, Z+1	; 0x01
    1c9e:	ce 01       	movw	r24, r28
    1ca0:	02 96       	adiw	r24, 0x02	; 2
    1ca2:	1a c0       	rjmp	.+52     	; 0x1cd8 <__pop_int+0xc2>
    1ca4:	c0 81       	ld	r28, Z
    1ca6:	d1 81       	ldd	r29, Z+1	; 0x01
    1ca8:	ce 01       	movw	r24, r28
    1caa:	02 96       	adiw	r24, 0x02	; 2
    1cac:	91 83       	std	Z+1, r25	; 0x01
    1cae:	80 83       	st	Z, r24
    1cb0:	45 2b       	or	r20, r21
    1cb2:	a1 f0       	breq	.+40     	; 0x1cdc <__pop_int+0xc6>
    1cb4:	48 81       	ld	r20, Y
    1cb6:	59 81       	ldd	r21, Y+1	; 0x01
    1cb8:	05 2e       	mov	r0, r21
    1cba:	00 0c       	add	r0, r0
    1cbc:	66 0b       	sbc	r22, r22
    1cbe:	77 0b       	sbc	r23, r23
    1cc0:	4d 93       	st	X+, r20
    1cc2:	5d 93       	st	X+, r21
    1cc4:	6d 93       	st	X+, r22
    1cc6:	7c 93       	st	X, r23
    1cc8:	13 97       	sbiw	r26, 0x03	; 3
    1cca:	81 e0       	ldi	r24, 0x01	; 1
    1ccc:	90 e0       	ldi	r25, 0x00	; 0
    1cce:	0d c0       	rjmp	.+26     	; 0x1cea <__pop_int+0xd4>
    1cd0:	c0 81       	ld	r28, Z
    1cd2:	d1 81       	ldd	r29, Z+1	; 0x01
    1cd4:	ce 01       	movw	r24, r28
    1cd6:	03 96       	adiw	r24, 0x03	; 3
    1cd8:	91 83       	std	Z+1, r25	; 0x01
    1cda:	80 83       	st	Z, r24
    1cdc:	48 81       	ld	r20, Y
    1cde:	59 81       	ldd	r21, Y+1	; 0x01
    1ce0:	60 e0       	ldi	r22, 0x00	; 0
    1ce2:	70 e0       	ldi	r23, 0x00	; 0
    1ce4:	ed cf       	rjmp	.-38     	; 0x1cc0 <__pop_int+0xaa>
    1ce6:	80 e0       	ldi	r24, 0x00	; 0
    1ce8:	90 e0       	ldi	r25, 0x00	; 0
    1cea:	df 91       	pop	r29
    1cec:	cf 91       	pop	r28
    1cee:	08 95       	ret

Disassembly of section .text.read_prec_or_width:

0000288e <read_prec_or_width>:
    288e:	dc 01       	movw	r26, r24
    2890:	2d 91       	ld	r18, X+
    2892:	3d 91       	ld	r19, X+
    2894:	4c 91       	ld	r20, X
    2896:	12 97       	sbiw	r26, 0x02	; 2
    2898:	f9 01       	movw	r30, r18
    289a:	84 91       	lpm	r24, Z
    289c:	47 fd       	sbrc	r20, 7
    289e:	80 81       	ld	r24, Z
    28a0:	8a 32       	cpi	r24, 0x2A	; 42
    28a2:	21 f0       	breq	.+8      	; 0x28ac <read_prec_or_width+0x1e>
    28a4:	80 e0       	ldi	r24, 0x00	; 0
    28a6:	90 e0       	ldi	r25, 0x00	; 0
    28a8:	7a e0       	ldi	r23, 0x0A	; 10
    28aa:	11 c0       	rjmp	.+34     	; 0x28ce <read_prec_or_width+0x40>
    28ac:	2f 5f       	subi	r18, 0xFF	; 255
    28ae:	3f 4f       	sbci	r19, 0xFF	; 255
    28b0:	4f 4f       	sbci	r20, 0xFF	; 255
    28b2:	2d 93       	st	X+, r18
    28b4:	3d 93       	st	X+, r19
    28b6:	4c 93       	st	X, r20
    28b8:	db 01       	movw	r26, r22
    28ba:	ed 91       	ld	r30, X+
    28bc:	fc 91       	ld	r31, X
    28be:	11 97       	sbiw	r26, 0x01	; 1
    28c0:	cf 01       	movw	r24, r30
    28c2:	02 96       	adiw	r24, 0x02	; 2
    28c4:	8d 93       	st	X+, r24
    28c6:	9c 93       	st	X, r25
    28c8:	80 81       	ld	r24, Z
    28ca:	91 81       	ldd	r25, Z+1	; 0x01
    28cc:	08 95       	ret
    28ce:	2d 91       	ld	r18, X+
    28d0:	3d 91       	ld	r19, X+
    28d2:	4c 91       	ld	r20, X
    28d4:	12 97       	sbiw	r26, 0x02	; 2
    28d6:	f9 01       	movw	r30, r18
    28d8:	54 91       	lpm	r21, Z
    28da:	47 fd       	sbrc	r20, 7
    28dc:	50 81       	ld	r21, Z
    28de:	50 53       	subi	r21, 0x30	; 48
    28e0:	5a 30       	cpi	r21, 0x0A	; 10
    28e2:	80 f4       	brcc	.+32     	; 0x2904 <read_prec_or_width+0x76>
    28e4:	78 9f       	mul	r23, r24
    28e6:	f0 01       	movw	r30, r0
    28e8:	79 9f       	mul	r23, r25
    28ea:	f0 0d       	add	r31, r0
    28ec:	11 24       	eor	r1, r1
    28ee:	cf 01       	movw	r24, r30
    28f0:	85 0f       	add	r24, r21
    28f2:	91 1d       	adc	r25, r1
    28f4:	2f 5f       	subi	r18, 0xFF	; 255
    28f6:	3f 4f       	sbci	r19, 0xFF	; 255
    28f8:	4f 4f       	sbci	r20, 0xFF	; 255
    28fa:	2d 93       	st	X+, r18
    28fc:	3d 93       	st	X+, r19
    28fe:	4c 93       	st	X, r20
    2900:	12 97       	sbiw	r26, 0x02	; 2
    2902:	e5 cf       	rjmp	.-54     	; 0x28ce <read_prec_or_width+0x40>
    2904:	08 95       	ret

Disassembly of section .text.__out:

00002a52 <__out>:
    2a52:	6f 92       	push	r6
    2a54:	7f 92       	push	r7
    2a56:	8f 92       	push	r8
    2a58:	cf 92       	push	r12
    2a5a:	df 92       	push	r13
    2a5c:	ef 92       	push	r14
    2a5e:	0f 93       	push	r16
    2a60:	1f 93       	push	r17
    2a62:	cf 93       	push	r28
    2a64:	df 93       	push	r29
    2a66:	8c 01       	movw	r16, r24
    2a68:	6a 01       	movw	r12, r20
    2a6a:	e6 2e       	mov	r14, r22
    2a6c:	e9 01       	movw	r28, r18
    2a6e:	3a 01       	movw	r6, r20
    2a70:	86 2e       	mov	r8, r22
    2a72:	62 0e       	add	r6, r18
    2a74:	73 1e       	adc	r7, r19
    2a76:	81 1c       	adc	r8, r1
    2a78:	37 fd       	sbrc	r19, 7
    2a7a:	8a 94       	dec	r8
    2a7c:	c6 14       	cp	r12, r6
    2a7e:	d7 04       	cpc	r13, r7
    2a80:	e8 04       	cpc	r14, r8
    2a82:	79 f0       	breq	.+30     	; 0x2aa2 <__out+0x50>
    2a84:	f6 01       	movw	r30, r12
    2a86:	84 91       	lpm	r24, Z
    2a88:	e7 fc       	sbrc	r14, 7
    2a8a:	80 81       	ld	r24, Z
    2a8c:	b8 01       	movw	r22, r16
    2a8e:	08 2e       	mov	r0, r24
    2a90:	00 0c       	add	r0, r0
    2a92:	99 0b       	sbc	r25, r25
    2a94:	0e 94 19 12 	call	0x2432	; 0x2432 <fputc>
    2a98:	8f ef       	ldi	r24, 0xFF	; 255
    2a9a:	c8 1a       	sub	r12, r24
    2a9c:	d8 0a       	sbc	r13, r24
    2a9e:	e8 0a       	sbc	r14, r24
    2aa0:	ed cf       	rjmp	.-38     	; 0x2a7c <__out+0x2a>
    2aa2:	ce 01       	movw	r24, r28
    2aa4:	df 91       	pop	r29
    2aa6:	cf 91       	pop	r28
    2aa8:	1f 91       	pop	r17
    2aaa:	0f 91       	pop	r16
    2aac:	ef 90       	pop	r14
    2aae:	df 90       	pop	r13
    2ab0:	cf 90       	pop	r12
    2ab2:	8f 90       	pop	r8
    2ab4:	7f 90       	pop	r7
    2ab6:	6f 90       	pop	r6
    2ab8:	08 95       	ret

Disassembly of section .text.__pad:

000024ca <__pad>:
    24ca:	6f 92       	push	r6
    24cc:	7f 92       	push	r7
    24ce:	8f 92       	push	r8
    24d0:	af 92       	push	r10
    24d2:	bf 92       	push	r11
    24d4:	cf 92       	push	r12
    24d6:	df 92       	push	r13
    24d8:	ef 92       	push	r14
    24da:	ff 92       	push	r15
    24dc:	0f 93       	push	r16
    24de:	1f 93       	push	r17
    24e0:	cf 93       	push	r28
    24e2:	df 93       	push	r29
    24e4:	5c 01       	movw	r10, r24
    24e6:	3a 01       	movw	r6, r20
    24e8:	86 2e       	mov	r8, r22
    24ea:	e9 01       	movw	r28, r18
    24ec:	67 01       	movw	r12, r14
    24ee:	81 e0       	ldi	r24, 0x01	; 1
    24f0:	c8 22       	and	r12, r24
    24f2:	dd 24       	eor	r13, r13
    24f4:	e0 fc       	sbrc	r14, 0
    24f6:	03 c0       	rjmp	.+6      	; 0x24fe <__pad+0x34>
    24f8:	20 17       	cp	r18, r16
    24fa:	31 07       	cpc	r19, r17
    24fc:	58 f0       	brcs	.+22     	; 0x2514 <__pad+0x4a>
    24fe:	9e 01       	movw	r18, r28
    2500:	68 2d       	mov	r22, r8
    2502:	a3 01       	movw	r20, r6
    2504:	c5 01       	movw	r24, r10
    2506:	0e 94 29 15 	call	0x2a52	; 0x2a52 <__out>
    250a:	c0 17       	cp	r28, r16
    250c:	d1 07       	cpc	r29, r17
    250e:	10 f0       	brcs	.+4      	; 0x2514 <__pad+0x4a>
    2510:	ce 01       	movw	r24, r28
    2512:	18 c0       	rjmp	.+48     	; 0x2544 <__pad+0x7a>
    2514:	78 01       	movw	r14, r16
    2516:	ec 1a       	sub	r14, r28
    2518:	fd 0a       	sbc	r15, r29
    251a:	e1 14       	cp	r14, r1
    251c:	f1 04       	cpc	r15, r1
    251e:	49 f0       	breq	.+18     	; 0x2532 <__pad+0x68>
    2520:	b5 01       	movw	r22, r10
    2522:	80 e2       	ldi	r24, 0x20	; 32
    2524:	90 e0       	ldi	r25, 0x00	; 0
    2526:	0e 94 19 12 	call	0x2432	; 0x2432 <fputc>
    252a:	81 e0       	ldi	r24, 0x01	; 1
    252c:	e8 1a       	sub	r14, r24
    252e:	f1 08       	sbc	r15, r1
    2530:	f4 cf       	rjmp	.-24     	; 0x251a <__pad+0x50>
    2532:	cd 28       	or	r12, r13
    2534:	31 f4       	brne	.+12     	; 0x2542 <__pad+0x78>
    2536:	9e 01       	movw	r18, r28
    2538:	68 2d       	mov	r22, r8
    253a:	a3 01       	movw	r20, r6
    253c:	c5 01       	movw	r24, r10
    253e:	0e 94 29 15 	call	0x2a52	; 0x2a52 <__out>
    2542:	c8 01       	movw	r24, r16
    2544:	df 91       	pop	r29
    2546:	cf 91       	pop	r28
    2548:	1f 91       	pop	r17
    254a:	0f 91       	pop	r16
    254c:	ff 90       	pop	r15
    254e:	ef 90       	pop	r14
    2550:	df 90       	pop	r13
    2552:	cf 90       	pop	r12
    2554:	bf 90       	pop	r11
    2556:	af 90       	pop	r10
    2558:	8f 90       	pop	r8
    255a:	7f 90       	pop	r7
    255c:	6f 90       	pop	r6
    255e:	08 95       	ret

Disassembly of section .text.__fmt_state:

00002394 <__fmt_state>:
    2394:	cf 92       	push	r12
    2396:	df 92       	push	r13
    2398:	ef 92       	push	r14
    239a:	dc 01       	movw	r26, r24
    239c:	90 e0       	ldi	r25, 0x00	; 0
    239e:	29 2f       	mov	r18, r25
    23a0:	30 e0       	ldi	r19, 0x00	; 0
    23a2:	22 0f       	add	r18, r18
    23a4:	33 1f       	adc	r19, r19
    23a6:	69 01       	movw	r12, r18
    23a8:	03 2e       	mov	r0, r19
    23aa:	00 0c       	add	r0, r0
    23ac:	ee 08       	sbc	r14, r14
    23ae:	6e 2d       	mov	r22, r14
    23b0:	a6 01       	movw	r20, r12
    23b2:	43 54       	subi	r20, 0x43	; 67
    23b4:	5e 4f       	sbci	r21, 0xFE	; 254
    23b6:	6f 4f       	sbci	r22, 0xFF	; 255
    23b8:	6a 01       	movw	r12, r20
    23ba:	e6 2e       	mov	r14, r22
    23bc:	fa 01       	movw	r30, r20
    23be:	84 91       	lpm	r24, Z
    23c0:	e7 fc       	sbrc	r14, 7
    23c2:	80 81       	ld	r24, Z
    23c4:	81 11       	cpse	r24, r1
    23c6:	0d c0       	rjmp	.+26     	; 0x23e2 <__fmt_state+0x4e>
    23c8:	2f 5f       	subi	r18, 0xFF	; 255
    23ca:	3f 4f       	sbci	r19, 0xFF	; 255
    23cc:	03 2e       	mov	r0, r19
    23ce:	00 0c       	add	r0, r0
    23d0:	44 0b       	sbc	r20, r20
    23d2:	23 54       	subi	r18, 0x43	; 67
    23d4:	3e 4f       	sbci	r19, 0xFE	; 254
    23d6:	4f 4f       	sbci	r20, 0xFF	; 255
    23d8:	f9 01       	movw	r30, r18
    23da:	84 91       	lpm	r24, Z
    23dc:	47 fd       	sbrc	r20, 7
    23de:	80 81       	ld	r24, Z
    23e0:	24 c0       	rjmp	.+72     	; 0x242a <__fmt_state+0x96>
    23e2:	cd 90       	ld	r12, X+
    23e4:	dd 90       	ld	r13, X+
    23e6:	ec 90       	ld	r14, X
    23e8:	12 97       	sbiw	r26, 0x02	; 2
    23ea:	f6 01       	movw	r30, r12
    23ec:	44 91       	lpm	r20, Z
    23ee:	e7 fc       	sbrc	r14, 7
    23f0:	40 81       	ld	r20, Z
    23f2:	84 13       	cpse	r24, r20
    23f4:	15 c0       	rjmp	.+42     	; 0x2420 <__fmt_state+0x8c>
    23f6:	2f 5f       	subi	r18, 0xFF	; 255
    23f8:	3f 4f       	sbci	r19, 0xFF	; 255
    23fa:	03 2e       	mov	r0, r19
    23fc:	00 0c       	add	r0, r0
    23fe:	44 0b       	sbc	r20, r20
    2400:	23 54       	subi	r18, 0x43	; 67
    2402:	3e 4f       	sbci	r19, 0xFE	; 254
    2404:	4f 4f       	sbci	r20, 0xFF	; 255
    2406:	f9 01       	movw	r30, r18
    2408:	94 91       	lpm	r25, Z
    240a:	47 fd       	sbrc	r20, 7
    240c:	90 81       	ld	r25, Z
    240e:	5f ef       	ldi	r21, 0xFF	; 255
    2410:	c5 1a       	sub	r12, r21
    2412:	d5 0a       	sbc	r13, r21
    2414:	e5 0a       	sbc	r14, r21
    2416:	cd 92       	st	X+, r12
    2418:	dd 92       	st	X+, r13
    241a:	ec 92       	st	X, r14
    241c:	12 97       	sbiw	r26, 0x02	; 2
    241e:	01 c0       	rjmp	.+2      	; 0x2422 <__fmt_state+0x8e>
    2420:	9f 5f       	subi	r25, 0xFF	; 255
    2422:	9b 30       	cpi	r25, 0x0B	; 11
    2424:	08 f4       	brcc	.+2      	; 0x2428 <__fmt_state+0x94>
    2426:	bb cf       	rjmp	.-138    	; 0x239e <__fmt_state+0xa>
    2428:	89 2f       	mov	r24, r25
    242a:	ef 90       	pop	r14
    242c:	df 90       	pop	r13
    242e:	cf 90       	pop	r12
    2430:	08 95       	ret

Disassembly of section .text.vfpfcnvrt:

00000868 <vfpfcnvrt>:
 868:	2f 92       	push	r2
 86a:	3f 92       	push	r3
 86c:	4f 92       	push	r4
 86e:	6f 92       	push	r6
 870:	7f 92       	push	r7
 872:	8f 92       	push	r8
 874:	9f 92       	push	r9
 876:	af 92       	push	r10
 878:	bf 92       	push	r11
 87a:	cf 92       	push	r12
 87c:	df 92       	push	r13
 87e:	ef 92       	push	r14
 880:	ff 92       	push	r15
 882:	0f 93       	push	r16
 884:	1f 93       	push	r17
 886:	cf 93       	push	r28
 888:	df 93       	push	r29
 88a:	cd b7       	in	r28, 0x3d	; 61
 88c:	de b7       	in	r29, 0x3e	; 62
 88e:	2e 97       	sbiw	r28, 0x0e	; 14
 890:	0f b6       	in	r0, 0x3f	; 63
 892:	f8 94       	cli
 894:	de bf       	out	0x3e, r29	; 62
 896:	0f be       	out	0x3f, r0	; 63
 898:	cd bf       	out	0x3d, r28	; 61
 89a:	4c 01       	movw	r8, r24
 89c:	6b 01       	movw	r12, r22
 89e:	38 01       	movw	r6, r16
 8a0:	1a 82       	std	Y+2, r1	; 0x02
 8a2:	19 82       	std	Y+1, r1	; 0x01
 8a4:	8f ef       	ldi	r24, 0xFF	; 255
 8a6:	9f ef       	ldi	r25, 0xFF	; 255
 8a8:	9c 83       	std	Y+4, r25	; 0x04
 8aa:	8b 83       	std	Y+3, r24	; 0x03
 8ac:	1e 82       	std	Y+6, r1	; 0x06
 8ae:	1d 82       	std	Y+5, r1	; 0x05
 8b0:	58 87       	std	Y+8, r21	; 0x08
 8b2:	4f 83       	std	Y+7, r20	; 0x07
 8b4:	3a 87       	std	Y+10, r19	; 0x0a
 8b6:	29 87       	std	Y+9, r18	; 0x09
 8b8:	a1 2c       	mov	r10, r1
 8ba:	b1 2c       	mov	r11, r1
 8bc:	d6 01       	movw	r26, r12
 8be:	2d 91       	ld	r18, X+
 8c0:	3d 91       	ld	r19, X+
 8c2:	4c 91       	ld	r20, X
 8c4:	2a 0d       	add	r18, r10
 8c6:	3b 1d       	adc	r19, r11
 8c8:	41 1d       	adc	r20, r1
 8ca:	b7 fc       	sbrc	r11, 7
 8cc:	4a 95       	dec	r20
 8ce:	f9 01       	movw	r30, r18
 8d0:	84 91       	lpm	r24, Z
 8d2:	47 fd       	sbrc	r20, 7
 8d4:	80 81       	ld	r24, Z
 8d6:	81 11       	cpse	r24, r1
 8d8:	16 c0       	rjmp	.+44     	; 0x906 <__stack+0x7>
 8da:	f6 01       	movw	r30, r12
 8dc:	20 83       	st	Z, r18
 8de:	31 83       	std	Z+1, r19	; 0x01
 8e0:	42 83       	std	Z+2, r20	; 0x02
 8e2:	f9 01       	movw	r30, r18
 8e4:	84 91       	lpm	r24, Z
 8e6:	47 fd       	sbrc	r20, 7
 8e8:	80 81       	ld	r24, Z
 8ea:	85 32       	cpi	r24, 0x25	; 37
 8ec:	09 f0       	breq	.+2      	; 0x8f0 <vfpfcnvrt+0x88>
 8ee:	0f c2       	rjmp	.+1054   	; 0xd0e <__stack+0x40f>
 8f0:	19 01       	movw	r2, r18
 8f2:	44 2e       	mov	r4, r20
 8f4:	ff ef       	ldi	r31, 0xFF	; 255
 8f6:	2f 1a       	sub	r2, r31
 8f8:	3f 0a       	sbc	r3, r31
 8fa:	4f 0a       	sbc	r4, r31
 8fc:	d6 01       	movw	r26, r12
 8fe:	2d 92       	st	X+, r2
 900:	3d 92       	st	X+, r3
 902:	4c 92       	st	X, r4
 904:	1b c0       	rjmp	.+54     	; 0x93c <__stack+0x3d>
 906:	85 32       	cpi	r24, 0x25	; 37
 908:	41 f3       	breq	.-48     	; 0x8da <vfpfcnvrt+0x72>
 90a:	b4 01       	movw	r22, r8
 90c:	08 2e       	mov	r0, r24
 90e:	00 0c       	add	r0, r0
 910:	99 0b       	sbc	r25, r25
 912:	0e 94 19 12 	call	0x2432	; 0x2432 <fputc>
 916:	4f ef       	ldi	r20, 0xFF	; 255
 918:	a4 1a       	sub	r10, r20
 91a:	b4 0a       	sbc	r11, r20
 91c:	cf cf       	rjmp	.-98     	; 0x8bc <vfpfcnvrt+0x54>
 91e:	2c 32       	cpi	r18, 0x2C	; 44
 920:	dc f0       	brlt	.+54     	; 0x958 <__stack+0x59>
 922:	2d 32       	cpi	r18, 0x2D	; 45
 924:	29 f5       	brne	.+74     	; 0x970 <__stack+0x71>
 926:	29 81       	ldd	r18, Y+1	; 0x01
 928:	3a 81       	ldd	r19, Y+2	; 0x02
 92a:	21 60       	ori	r18, 0x01	; 1
 92c:	3a 83       	std	Y+2, r19	; 0x02
 92e:	29 83       	std	Y+1, r18	; 0x01
 930:	01 96       	adiw	r24, 0x01	; 1
 932:	a1 1d       	adc	r26, r1
 934:	f6 01       	movw	r30, r12
 936:	80 83       	st	Z, r24
 938:	91 83       	std	Z+1, r25	; 0x01
 93a:	a2 83       	std	Z+2, r26	; 0x02
 93c:	f6 01       	movw	r30, r12
 93e:	80 81       	ld	r24, Z
 940:	91 81       	ldd	r25, Z+1	; 0x01
 942:	a2 81       	ldd	r26, Z+2	; 0x02
 944:	fc 01       	movw	r30, r24
 946:	24 91       	lpm	r18, Z
 948:	a7 fd       	sbrc	r26, 7
 94a:	20 81       	ld	r18, Z
 94c:	2b 32       	cpi	r18, 0x2B	; 43
 94e:	39 f7       	brne	.-50     	; 0x91e <__stack+0x1f>
 950:	29 81       	ldd	r18, Y+1	; 0x01
 952:	3a 81       	ldd	r19, Y+2	; 0x02
 954:	24 60       	ori	r18, 0x04	; 4
 956:	ea cf       	rjmp	.-44     	; 0x92c <__stack+0x2d>
 958:	20 32       	cpi	r18, 0x20	; 32
 95a:	21 f4       	brne	.+8      	; 0x964 <__stack+0x65>
 95c:	29 81       	ldd	r18, Y+1	; 0x01
 95e:	3a 81       	ldd	r19, Y+2	; 0x02
 960:	28 60       	ori	r18, 0x08	; 8
 962:	e4 cf       	rjmp	.-56     	; 0x92c <__stack+0x2d>
 964:	23 32       	cpi	r18, 0x23	; 35
 966:	51 f4       	brne	.+20     	; 0x97c <__stack+0x7d>
 968:	29 81       	ldd	r18, Y+1	; 0x01
 96a:	3a 81       	ldd	r19, Y+2	; 0x02
 96c:	20 61       	ori	r18, 0x10	; 16
 96e:	de cf       	rjmp	.-68     	; 0x92c <__stack+0x2d>
 970:	20 33       	cpi	r18, 0x30	; 48
 972:	21 f4       	brne	.+8      	; 0x97c <__stack+0x7d>
 974:	29 81       	ldd	r18, Y+1	; 0x01
 976:	3a 81       	ldd	r19, Y+2	; 0x02
 978:	22 60       	ori	r18, 0x02	; 2
 97a:	d8 cf       	rjmp	.-80     	; 0x92c <__stack+0x2d>
 97c:	b7 01       	movw	r22, r14
 97e:	c6 01       	movw	r24, r12
 980:	0e 94 47 14 	call	0x288e	; 0x288e <read_prec_or_width>
 984:	9e 83       	std	Y+6, r25	; 0x06
 986:	8d 83       	std	Y+5, r24	; 0x05
 988:	97 ff       	sbrs	r25, 7
 98a:	0b c0       	rjmp	.+22     	; 0x9a2 <__stack+0xa3>
 98c:	29 81       	ldd	r18, Y+1	; 0x01
 98e:	3a 81       	ldd	r19, Y+2	; 0x02
 990:	f1 e0       	ldi	r31, 0x01	; 1
 992:	2f 27       	eor	r18, r31
 994:	3a 83       	std	Y+2, r19	; 0x02
 996:	29 83       	std	Y+1, r18	; 0x01
 998:	91 95       	neg	r25
 99a:	81 95       	neg	r24
 99c:	91 09       	sbc	r25, r1
 99e:	9e 83       	std	Y+6, r25	; 0x06
 9a0:	8d 83       	std	Y+5, r24	; 0x05
 9a2:	89 81       	ldd	r24, Y+1	; 0x01
 9a4:	9a 81       	ldd	r25, Y+2	; 0x02
 9a6:	80 ff       	sbrs	r24, 0
 9a8:	03 c0       	rjmp	.+6      	; 0x9b0 <__stack+0xb1>
 9aa:	8d 7f       	andi	r24, 0xFD	; 253
 9ac:	9a 83       	std	Y+2, r25	; 0x02
 9ae:	89 83       	std	Y+1, r24	; 0x01
 9b0:	f6 01       	movw	r30, r12
 9b2:	80 81       	ld	r24, Z
 9b4:	91 81       	ldd	r25, Z+1	; 0x01
 9b6:	a2 81       	ldd	r26, Z+2	; 0x02
 9b8:	fc 01       	movw	r30, r24
 9ba:	24 91       	lpm	r18, Z
 9bc:	a7 fd       	sbrc	r26, 7
 9be:	20 81       	ld	r18, Z
 9c0:	2e 32       	cpi	r18, 0x2E	; 46
 9c2:	61 f4       	brne	.+24     	; 0x9dc <__stack+0xdd>
 9c4:	01 96       	adiw	r24, 0x01	; 1
 9c6:	a1 1d       	adc	r26, r1
 9c8:	f6 01       	movw	r30, r12
 9ca:	80 83       	st	Z, r24
 9cc:	91 83       	std	Z+1, r25	; 0x01
 9ce:	a2 83       	std	Z+2, r26	; 0x02
 9d0:	b7 01       	movw	r22, r14
 9d2:	c6 01       	movw	r24, r12
 9d4:	0e 94 47 14 	call	0x288e	; 0x288e <read_prec_or_width>
 9d8:	9c 83       	std	Y+4, r25	; 0x04
 9da:	8b 83       	std	Y+3, r24	; 0x03
 9dc:	c6 01       	movw	r24, r12
 9de:	0e 94 ca 11 	call	0x2394	; 0x2394 <__fmt_state>
 9e2:	18 2f       	mov	r17, r24
 9e4:	d6 01       	movw	r26, r12
 9e6:	2c 91       	ld	r18, X
 9e8:	11 96       	adiw	r26, 0x01	; 1
 9ea:	8c 91       	ld	r24, X
 9ec:	11 97       	sbiw	r26, 0x01	; 1
 9ee:	12 96       	adiw	r26, 0x02	; 2
 9f0:	9c 91       	ld	r25, X
 9f2:	e2 2f       	mov	r30, r18
 9f4:	f8 2f       	mov	r31, r24
 9f6:	84 91       	lpm	r24, Z
 9f8:	97 fd       	sbrc	r25, 7
 9fa:	80 81       	ld	r24, Z
 9fc:	08 2e       	mov	r0, r24
 9fe:	00 0c       	add	r0, r0
 a00:	99 0b       	sbc	r25, r25
 a02:	0e 94 0b 19 	call	0x3216	; 0x3216 <tolower>
 a06:	89 36       	cpi	r24, 0x69	; 105
 a08:	09 f4       	brne	.+2      	; 0xa0c <__stack+0x10d>
 a0a:	4a c0       	rjmp	.+148    	; 0xaa0 <__stack+0x1a1>
 a0c:	84 f4       	brge	.+32     	; 0xa2e <__stack+0x12f>
 a0e:	83 36       	cpi	r24, 0x63	; 99
 a10:	09 f4       	brne	.+2      	; 0xa14 <__stack+0x115>
 a12:	19 c1       	rjmp	.+562    	; 0xc46 <__stack+0x347>
 a14:	34 f4       	brge	.+12     	; 0xa22 <__stack+0x123>
 a16:	85 32       	cpi	r24, 0x25	; 37
 a18:	09 f4       	brne	.+2      	; 0xa1c <__stack+0x11d>
 a1a:	45 c1       	rjmp	.+650    	; 0xca6 <__stack+0x3a7>
 a1c:	81 36       	cpi	r24, 0x61	; 97
 a1e:	e1 f0       	breq	.+56     	; 0xa58 <__stack+0x159>
 a20:	50 c1       	rjmp	.+672    	; 0xcc2 <__stack+0x3c3>
 a22:	84 36       	cpi	r24, 0x64	; 100
 a24:	e9 f1       	breq	.+122    	; 0xaa0 <__stack+0x1a1>
 a26:	88 36       	cpi	r24, 0x68	; 104
 a28:	0c f4       	brge	.+2      	; 0xa2c <__stack+0x12d>
 a2a:	e9 c0       	rjmp	.+466    	; 0xbfe <__stack+0x2ff>
 a2c:	4a c1       	rjmp	.+660    	; 0xcc2 <__stack+0x3c3>
 a2e:	80 37       	cpi	r24, 0x70	; 112
 a30:	09 f4       	brne	.+2      	; 0xa34 <__stack+0x135>
 a32:	b0 c0       	rjmp	.+352    	; 0xb94 <__stack+0x295>
 a34:	3c f4       	brge	.+14     	; 0xa44 <__stack+0x145>
 a36:	8e 36       	cpi	r24, 0x6E	; 110
 a38:	09 f4       	brne	.+2      	; 0xa3c <__stack+0x13d>
 a3a:	d6 c0       	rjmp	.+428    	; 0xbe8 <__stack+0x2e9>
 a3c:	8f 36       	cpi	r24, 0x6F	; 111
 a3e:	09 f4       	brne	.+2      	; 0xa42 <__stack+0x143>
 a40:	6d c0       	rjmp	.+218    	; 0xb1c <__stack+0x21d>
 a42:	3f c1       	rjmp	.+638    	; 0xcc2 <__stack+0x3c3>
 a44:	85 37       	cpi	r24, 0x75	; 117
 a46:	09 f4       	brne	.+2      	; 0xa4a <__stack+0x14b>
 a48:	4a c0       	rjmp	.+148    	; 0xade <__stack+0x1df>
 a4a:	88 37       	cpi	r24, 0x78	; 120
 a4c:	09 f4       	brne	.+2      	; 0xa50 <__stack+0x151>
 a4e:	85 c0       	rjmp	.+266    	; 0xb5a <__stack+0x25b>
 a50:	83 37       	cpi	r24, 0x73	; 115
 a52:	09 f0       	breq	.+2      	; 0xa56 <__stack+0x157>
 a54:	36 c1       	rjmp	.+620    	; 0xcc2 <__stack+0x3c3>
 a56:	0d c1       	rjmp	.+538    	; 0xc72 <__stack+0x373>
 a58:	61 2f       	mov	r22, r17
 a5a:	70 e0       	ldi	r23, 0x00	; 0
 a5c:	a7 01       	movw	r20, r14
 a5e:	ce 01       	movw	r24, r28
 a60:	0b 96       	adiw	r24, 0x0b	; 11
 a62:	0e 94 00 00 	call	0	; 0x0 <__TEXT_REGION_ORIGIN__>
 a66:	89 2b       	or	r24, r25
 a68:	09 f4       	brne	.+2      	; 0xa6c <__stack+0x16d>
 a6a:	48 c1       	rjmp	.+656    	; 0xcfc <__stack+0x3fd>
 a6c:	f6 01       	movw	r30, r12
 a6e:	80 81       	ld	r24, Z
 a70:	91 81       	ldd	r25, Z+1	; 0x01
 a72:	a2 81       	ldd	r26, Z+2	; 0x02
 a74:	9c 01       	movw	r18, r24
 a76:	4a 2f       	mov	r20, r26
 a78:	2f 5f       	subi	r18, 0xFF	; 255
 a7a:	3f 4f       	sbci	r19, 0xFF	; 255
 a7c:	4f 4f       	sbci	r20, 0xFF	; 255
 a7e:	20 83       	st	Z, r18
 a80:	31 83       	std	Z+1, r19	; 0x01
 a82:	42 83       	std	Z+2, r20	; 0x02
 a84:	fc 01       	movw	r30, r24
 a86:	24 91       	lpm	r18, Z
 a88:	a7 fd       	sbrc	r26, 7
 a8a:	20 81       	ld	r18, Z
 a8c:	ae 01       	movw	r20, r28
 a8e:	45 5f       	subi	r20, 0xF5	; 245
 a90:	5f 4f       	sbci	r21, 0xFF	; 255
 a92:	be 01       	movw	r22, r28
 a94:	6f 5f       	subi	r22, 0xFF	; 255
 a96:	7f 4f       	sbci	r23, 0xFF	; 255
 a98:	c4 01       	movw	r24, r8
 a9a:	0e 94 00 00 	call	0	; 0x0 <__TEXT_REGION_ORIGIN__>
 a9e:	2b c1       	rjmp	.+598    	; 0xcf6 <__stack+0x3f7>
 aa0:	61 2f       	mov	r22, r17
 aa2:	70 e0       	ldi	r23, 0x00	; 0
 aa4:	97 01       	movw	r18, r14
 aa6:	41 e0       	ldi	r20, 0x01	; 1
 aa8:	50 e0       	ldi	r21, 0x00	; 0
 aaa:	ce 01       	movw	r24, r28
 aac:	0b 96       	adiw	r24, 0x0b	; 11
 aae:	0e 94 0b 0e 	call	0x1c16	; 0x1c16 <__pop_int>
 ab2:	89 2b       	or	r24, r25
 ab4:	09 f4       	brne	.+2      	; 0xab8 <__stack+0x1b9>
 ab6:	22 c1       	rjmp	.+580    	; 0xcfc <__stack+0x3fd>
 ab8:	f6 01       	movw	r30, r12
 aba:	80 81       	ld	r24, Z
 abc:	91 81       	ldd	r25, Z+1	; 0x01
 abe:	a2 81       	ldd	r26, Z+2	; 0x02
 ac0:	01 96       	adiw	r24, 0x01	; 1
 ac2:	a1 1d       	adc	r26, r1
 ac4:	80 83       	st	Z, r24
 ac6:	91 83       	std	Z+1, r25	; 0x01
 ac8:	a2 83       	std	Z+2, r26	; 0x02
 aca:	ae 01       	movw	r20, r28
 acc:	45 5f       	subi	r20, 0xF5	; 245
 ace:	5f 4f       	sbci	r21, 0xFF	; 255
 ad0:	be 01       	movw	r22, r28
 ad2:	6f 5f       	subi	r22, 0xFF	; 255
 ad4:	7f 4f       	sbci	r23, 0xFF	; 255
 ad6:	c4 01       	movw	r24, r8
 ad8:	0e 94 98 0d 	call	0x1b30	; 0x1b30 <__fmt_d>
 adc:	0c c1       	rjmp	.+536    	; 0xcf6 <__stack+0x3f7>
 ade:	61 2f       	mov	r22, r17
 ae0:	70 e0       	ldi	r23, 0x00	; 0
 ae2:	97 01       	movw	r18, r14
 ae4:	40 e0       	ldi	r20, 0x00	; 0
 ae6:	50 e0       	ldi	r21, 0x00	; 0
 ae8:	ce 01       	movw	r24, r28
 aea:	0b 96       	adiw	r24, 0x0b	; 11
 aec:	0e 94 0b 0e 	call	0x1c16	; 0x1c16 <__pop_int>
 af0:	89 2b       	or	r24, r25
 af2:	09 f4       	brne	.+2      	; 0xaf6 <__stack+0x1f7>
 af4:	03 c1       	rjmp	.+518    	; 0xcfc <__stack+0x3fd>
 af6:	f6 01       	movw	r30, r12
 af8:	80 81       	ld	r24, Z
 afa:	91 81       	ldd	r25, Z+1	; 0x01
 afc:	a2 81       	ldd	r26, Z+2	; 0x02
 afe:	01 96       	adiw	r24, 0x01	; 1
 b00:	a1 1d       	adc	r26, r1
 b02:	80 83       	st	Z, r24
 b04:	91 83       	std	Z+1, r25	; 0x01
 b06:	a2 83       	std	Z+2, r26	; 0x02
 b08:	ae 01       	movw	r20, r28
 b0a:	45 5f       	subi	r20, 0xF5	; 245
 b0c:	5f 4f       	sbci	r21, 0xFF	; 255
 b0e:	be 01       	movw	r22, r28
 b10:	6f 5f       	subi	r22, 0xFF	; 255
 b12:	7f 4f       	sbci	r23, 0xFF	; 255
 b14:	c4 01       	movw	r24, r8
 b16:	0e 94 fa 12 	call	0x25f4	; 0x25f4 <__fmt_u>
 b1a:	ed c0       	rjmp	.+474    	; 0xcf6 <__stack+0x3f7>
 b1c:	61 2f       	mov	r22, r17
 b1e:	70 e0       	ldi	r23, 0x00	; 0
 b20:	97 01       	movw	r18, r14
 b22:	40 e0       	ldi	r20, 0x00	; 0
 b24:	50 e0       	ldi	r21, 0x00	; 0
 b26:	ce 01       	movw	r24, r28
 b28:	0b 96       	adiw	r24, 0x0b	; 11
 b2a:	0e 94 0b 0e 	call	0x1c16	; 0x1c16 <__pop_int>
 b2e:	89 2b       	or	r24, r25
 b30:	09 f4       	brne	.+2      	; 0xb34 <__stack+0x235>
 b32:	e4 c0       	rjmp	.+456    	; 0xcfc <__stack+0x3fd>
 b34:	f6 01       	movw	r30, r12
 b36:	80 81       	ld	r24, Z
 b38:	91 81       	ldd	r25, Z+1	; 0x01
 b3a:	a2 81       	ldd	r26, Z+2	; 0x02
 b3c:	01 96       	adiw	r24, 0x01	; 1
 b3e:	a1 1d       	adc	r26, r1
 b40:	80 83       	st	Z, r24
 b42:	91 83       	std	Z+1, r25	; 0x01
 b44:	a2 83       	std	Z+2, r26	; 0x02
 b46:	ae 01       	movw	r20, r28
 b48:	45 5f       	subi	r20, 0xF5	; 245
 b4a:	5f 4f       	sbci	r21, 0xFF	; 255
 b4c:	be 01       	movw	r22, r28
 b4e:	6f 5f       	subi	r22, 0xFF	; 255
 b50:	7f 4f       	sbci	r23, 0xFF	; 255
 b52:	c4 01       	movw	r24, r8
 b54:	0e 94 7d 10 	call	0x20fa	; 0x20fa <__fmt_o>
 b58:	ce c0       	rjmp	.+412    	; 0xcf6 <__stack+0x3f7>
 b5a:	61 2f       	mov	r22, r17
 b5c:	70 e0       	ldi	r23, 0x00	; 0
 b5e:	97 01       	movw	r18, r14
 b60:	40 e0       	ldi	r20, 0x00	; 0
 b62:	50 e0       	ldi	r21, 0x00	; 0
 b64:	ce 01       	movw	r24, r28
 b66:	0b 96       	adiw	r24, 0x0b	; 11
 b68:	0e 94 0b 0e 	call	0x1c16	; 0x1c16 <__pop_int>
 b6c:	89 2b       	or	r24, r25
 b6e:	09 f4       	brne	.+2      	; 0xb72 <__stack+0x273>
 b70:	c5 c0       	rjmp	.+394    	; 0xcfc <__stack+0x3fd>
 b72:	f6 01       	movw	r30, r12
 b74:	80 81       	ld	r24, Z
 b76:	91 81       	ldd	r25, Z+1	; 0x01
 b78:	a2 81       	ldd	r26, Z+2	; 0x02
 b7a:	9c 01       	movw	r18, r24
 b7c:	4a 2f       	mov	r20, r26
 b7e:	2f 5f       	subi	r18, 0xFF	; 255
 b80:	3f 4f       	sbci	r19, 0xFF	; 255
 b82:	4f 4f       	sbci	r20, 0xFF	; 255
 b84:	20 83       	st	Z, r18
 b86:	31 83       	std	Z+1, r19	; 0x01
 b88:	42 83       	std	Z+2, r20	; 0x02
 b8a:	fc 01       	movw	r30, r24
 b8c:	24 91       	lpm	r18, Z
 b8e:	a7 fd       	sbrc	r26, 7
 b90:	20 81       	ld	r18, Z
 b92:	20 c0       	rjmp	.+64     	; 0xbd4 <__stack+0x2d5>
 b94:	97 01       	movw	r18, r14
 b96:	40 e0       	ldi	r20, 0x00	; 0
 b98:	50 e0       	ldi	r21, 0x00	; 0
 b9a:	60 ef       	ldi	r22, 0xF0	; 240
 b9c:	70 e0       	ldi	r23, 0x00	; 0
 b9e:	ce 01       	movw	r24, r28
 ba0:	0b 96       	adiw	r24, 0x0b	; 11
 ba2:	0e 94 0b 0e 	call	0x1c16	; 0x1c16 <__pop_int>
 ba6:	89 2b       	or	r24, r25
 ba8:	09 f4       	brne	.+2      	; 0xbac <__stack+0x2ad>
 baa:	a8 c0       	rjmp	.+336    	; 0xcfc <__stack+0x3fd>
 bac:	f6 01       	movw	r30, r12
 bae:	80 81       	ld	r24, Z
 bb0:	91 81       	ldd	r25, Z+1	; 0x01
 bb2:	a2 81       	ldd	r26, Z+2	; 0x02
 bb4:	01 96       	adiw	r24, 0x01	; 1
 bb6:	a1 1d       	adc	r26, r1
 bb8:	80 83       	st	Z, r24
 bba:	91 83       	std	Z+1, r25	; 0x01
 bbc:	a2 83       	std	Z+2, r26	; 0x02
 bbe:	8b 85       	ldd	r24, Y+11	; 0x0b
 bc0:	9c 85       	ldd	r25, Y+12	; 0x0c
 bc2:	89 2b       	or	r24, r25
 bc4:	31 f4       	brne	.+12     	; 0xbd2 <__stack+0x2d3>
 bc6:	00 e0       	ldi	r16, 0x00	; 0
 bc8:	10 e0       	ldi	r17, 0x00	; 0
 bca:	2a ed       	ldi	r18, 0xDA	; 218
 bcc:	31 e0       	ldi	r19, 0x01	; 1
 bce:	40 e0       	ldi	r20, 0x00	; 0
 bd0:	8c c0       	rjmp	.+280    	; 0xcea <__stack+0x3eb>
 bd2:	28 e7       	ldi	r18, 0x78	; 120
 bd4:	ae 01       	movw	r20, r28
 bd6:	45 5f       	subi	r20, 0xF5	; 245
 bd8:	5f 4f       	sbci	r21, 0xFF	; 255
 bda:	be 01       	movw	r22, r28
 bdc:	6f 5f       	subi	r22, 0xFF	; 255
 bde:	7f 4f       	sbci	r23, 0xFF	; 255
 be0:	c4 01       	movw	r24, r8
 be2:	0e 94 da 0a 	call	0x15b4	; 0x15b4 <__fmt_x>
 be6:	87 c0       	rjmp	.+270    	; 0xcf6 <__stack+0x3f7>
 be8:	a5 01       	movw	r20, r10
 bea:	46 0d       	add	r20, r6
 bec:	57 1d       	adc	r21, r7
 bee:	61 2f       	mov	r22, r17
 bf0:	70 e0       	ldi	r23, 0x00	; 0
 bf2:	97 01       	movw	r18, r14
 bf4:	ce 01       	movw	r24, r28
 bf6:	0b 96       	adiw	r24, 0x0b	; 11
 bf8:	0e 94 00 00 	call	0	; 0x0 <__TEXT_REGION_ORIGIN__>
 bfc:	7f c0       	rjmp	.+254    	; 0xcfc <__stack+0x3fd>
 bfe:	61 2f       	mov	r22, r17
 c00:	70 e0       	ldi	r23, 0x00	; 0
 c02:	a7 01       	movw	r20, r14
 c04:	ce 01       	movw	r24, r28
 c06:	0b 96       	adiw	r24, 0x0b	; 11
 c08:	0e 94 00 00 	call	0	; 0x0 <__TEXT_REGION_ORIGIN__>
 c0c:	89 2b       	or	r24, r25
 c0e:	09 f4       	brne	.+2      	; 0xc12 <__stack+0x313>
 c10:	75 c0       	rjmp	.+234    	; 0xcfc <__stack+0x3fd>
 c12:	f6 01       	movw	r30, r12
 c14:	80 81       	ld	r24, Z
 c16:	91 81       	ldd	r25, Z+1	; 0x01
 c18:	a2 81       	ldd	r26, Z+2	; 0x02
 c1a:	9c 01       	movw	r18, r24
 c1c:	4a 2f       	mov	r20, r26
 c1e:	2f 5f       	subi	r18, 0xFF	; 255
 c20:	3f 4f       	sbci	r19, 0xFF	; 255
 c22:	4f 4f       	sbci	r20, 0xFF	; 255
 c24:	20 83       	st	Z, r18
 c26:	31 83       	std	Z+1, r19	; 0x01
 c28:	42 83       	std	Z+2, r20	; 0x02
 c2a:	fc 01       	movw	r30, r24
 c2c:	24 91       	lpm	r18, Z
 c2e:	a7 fd       	sbrc	r26, 7
 c30:	20 81       	ld	r18, Z
 c32:	ae 01       	movw	r20, r28
 c34:	45 5f       	subi	r20, 0xF5	; 245
 c36:	5f 4f       	sbci	r21, 0xFF	; 255
 c38:	be 01       	movw	r22, r28
 c3a:	6f 5f       	subi	r22, 0xFF	; 255
 c3c:	7f 4f       	sbci	r23, 0xFF	; 255
 c3e:	c4 01       	movw	r24, r8
 c40:	0e 94 00 00 	call	0	; 0x0 <__TEXT_REGION_ORIGIN__>
 c44:	58 c0       	rjmp	.+176    	; 0xcf6 <__stack+0x3f7>
 c46:	10 38       	cpi	r17, 0x80	; 128
 c48:	09 f0       	breq	.+2      	; 0xc4c <__stack+0x34d>
 c4a:	58 c0       	rjmp	.+176    	; 0xcfc <__stack+0x3fd>
 c4c:	f6 01       	movw	r30, r12
 c4e:	80 81       	ld	r24, Z
 c50:	91 81       	ldd	r25, Z+1	; 0x01
 c52:	a2 81       	ldd	r26, Z+2	; 0x02
 c54:	01 96       	adiw	r24, 0x01	; 1
 c56:	a1 1d       	adc	r26, r1
 c58:	80 83       	st	Z, r24
 c5a:	91 83       	std	Z+1, r25	; 0x01
 c5c:	a2 83       	std	Z+2, r26	; 0x02
 c5e:	d7 01       	movw	r26, r14
 c60:	ed 91       	ld	r30, X+
 c62:	fc 91       	ld	r31, X
 c64:	11 97       	sbiw	r26, 0x01	; 1
 c66:	cf 01       	movw	r24, r30
 c68:	02 96       	adiw	r24, 0x02	; 2
 c6a:	8d 93       	st	X+, r24
 c6c:	9c 93       	st	X, r25
 c6e:	80 81       	ld	r24, Z
 c70:	26 c0       	rjmp	.+76     	; 0xcbe <__stack+0x3bf>
 c72:	10 38       	cpi	r17, 0x80	; 128
 c74:	09 f0       	breq	.+2      	; 0xc78 <__stack+0x379>
 c76:	42 c0       	rjmp	.+132    	; 0xcfc <__stack+0x3fd>
 c78:	f6 01       	movw	r30, r12
 c7a:	80 81       	ld	r24, Z
 c7c:	91 81       	ldd	r25, Z+1	; 0x01
 c7e:	a2 81       	ldd	r26, Z+2	; 0x02
 c80:	01 96       	adiw	r24, 0x01	; 1
 c82:	a1 1d       	adc	r26, r1
 c84:	80 83       	st	Z, r24
 c86:	91 83       	std	Z+1, r25	; 0x01
 c88:	a2 83       	std	Z+2, r26	; 0x02
 c8a:	d7 01       	movw	r26, r14
 c8c:	ed 91       	ld	r30, X+
 c8e:	fc 91       	ld	r31, X
 c90:	11 97       	sbiw	r26, 0x01	; 1
 c92:	cf 01       	movw	r24, r30
 c94:	03 96       	adiw	r24, 0x03	; 3
 c96:	8d 93       	st	X+, r24
 c98:	9c 93       	st	X, r25
 c9a:	20 81       	ld	r18, Z
 c9c:	31 81       	ldd	r19, Z+1	; 0x01
 c9e:	42 81       	ldd	r20, Z+2	; 0x02
 ca0:	00 e0       	ldi	r16, 0x00	; 0
 ca2:	10 e0       	ldi	r17, 0x00	; 0
 ca4:	22 c0       	rjmp	.+68     	; 0xcea <__stack+0x3eb>
 ca6:	10 38       	cpi	r17, 0x80	; 128
 ca8:	49 f5       	brne	.+82     	; 0xcfc <__stack+0x3fd>
 caa:	f6 01       	movw	r30, r12
 cac:	20 81       	ld	r18, Z
 cae:	31 81       	ldd	r19, Z+1	; 0x01
 cb0:	42 81       	ldd	r20, Z+2	; 0x02
 cb2:	2f 5f       	subi	r18, 0xFF	; 255
 cb4:	3f 4f       	sbci	r19, 0xFF	; 255
 cb6:	4f 4f       	sbci	r20, 0xFF	; 255
 cb8:	20 83       	st	Z, r18
 cba:	31 83       	std	Z+1, r19	; 0x01
 cbc:	42 83       	std	Z+2, r20	; 0x02
 cbe:	8b 87       	std	Y+11, r24	; 0x0b
 cc0:	0e c0       	rjmp	.+28     	; 0xcde <__stack+0x3df>
 cc2:	85 e2       	ldi	r24, 0x25	; 37
 cc4:	8b 87       	std	Y+11, r24	; 0x0b
 cc6:	f6 01       	movw	r30, r12
 cc8:	20 82       	st	Z, r2
 cca:	31 82       	std	Z+1, r3	; 0x01
 ccc:	42 82       	std	Z+2, r4	; 0x02
 cce:	1a 82       	std	Y+2, r1	; 0x02
 cd0:	19 82       	std	Y+1, r1	; 0x01
 cd2:	1e 82       	std	Y+6, r1	; 0x06
 cd4:	1d 82       	std	Y+5, r1	; 0x05
 cd6:	8f ef       	ldi	r24, 0xFF	; 255
 cd8:	9f ef       	ldi	r25, 0xFF	; 255
 cda:	9c 83       	std	Y+4, r25	; 0x04
 cdc:	8b 83       	std	Y+3, r24	; 0x03
 cde:	9e 01       	movw	r18, r28
 ce0:	25 5f       	subi	r18, 0xF5	; 245
 ce2:	3f 4f       	sbci	r19, 0xFF	; 255
 ce4:	40 e8       	ldi	r20, 0x80	; 128
 ce6:	01 e0       	ldi	r16, 0x01	; 1
 ce8:	10 e0       	ldi	r17, 0x00	; 0
 cea:	be 01       	movw	r22, r28
 cec:	6f 5f       	subi	r22, 0xFF	; 255
 cee:	7f 4f       	sbci	r23, 0xFF	; 255
 cf0:	c4 01       	movw	r24, r8
 cf2:	0e 94 0a 14 	call	0x2814	; 0x2814 <__fmt_s>
 cf6:	8a 0d       	add	r24, r10
 cf8:	9b 1d       	adc	r25, r11
 cfa:	0a c0       	rjmp	.+20     	; 0xd10 <__stack+0x411>
 cfc:	f6 01       	movw	r30, r12
 cfe:	80 81       	ld	r24, Z
 d00:	91 81       	ldd	r25, Z+1	; 0x01
 d02:	a2 81       	ldd	r26, Z+2	; 0x02
 d04:	01 96       	adiw	r24, 0x01	; 1
 d06:	a1 1d       	adc	r26, r1
 d08:	80 83       	st	Z, r24
 d0a:	91 83       	std	Z+1, r25	; 0x01
 d0c:	a2 83       	std	Z+2, r26	; 0x02
 d0e:	c5 01       	movw	r24, r10
 d10:	2e 96       	adiw	r28, 0x0e	; 14
 d12:	0f b6       	in	r0, 0x3f	; 63
 d14:	f8 94       	cli
 d16:	de bf       	out	0x3e, r29	; 62
 d18:	0f be       	out	0x3f, r0	; 63
 d1a:	cd bf       	out	0x3d, r28	; 61
 d1c:	df 91       	pop	r29
 d1e:	cf 91       	pop	r28
 d20:	1f 91       	pop	r17
 d22:	0f 91       	pop	r16
 d24:	ff 90       	pop	r15
 d26:	ef 90       	pop	r14
 d28:	df 90       	pop	r13
 d2a:	cf 90       	pop	r12
 d2c:	bf 90       	pop	r11
 d2e:	af 90       	pop	r10
 d30:	9f 90       	pop	r9
 d32:	8f 90       	pop	r8
 d34:	7f 90       	pop	r7
 d36:	6f 90       	pop	r6
 d38:	4f 90       	pop	r4
 d3a:	3f 90       	pop	r3
 d3c:	2f 90       	pop	r2
 d3e:	08 95       	ret

Disassembly of section .text.__printf_core:

00002906 <__printf_core>:
    2906:	a3 e8       	ldi	r26, 0x83	; 131
    2908:	b0 e0       	ldi	r27, 0x00	; 0
    290a:	e9 e8       	ldi	r30, 0x89	; 137
    290c:	f4 e1       	ldi	r31, 0x14	; 20
    290e:	0c 94 53 17 	jmp	0x2ea6	; 0x2ea6 <__prologue_saves__+0xc>
    2912:	5c 01       	movw	r10, r24
    2914:	49 01       	movw	r8, r18
    2916:	49 83       	std	Y+1, r20	; 0x01
    2918:	5a 83       	std	Y+2, r21	; 0x02
    291a:	6b 83       	std	Y+3, r22	; 0x03
    291c:	c1 2c       	mov	r12, r1
    291e:	d1 2c       	mov	r13, r1
    2920:	29 81       	ldd	r18, Y+1	; 0x01
    2922:	9a 81       	ldd	r25, Y+2	; 0x02
    2924:	8b 81       	ldd	r24, Y+3	; 0x03
    2926:	e2 2f       	mov	r30, r18
    2928:	f9 2f       	mov	r31, r25
    292a:	94 91       	lpm	r25, Z
    292c:	87 fd       	sbrc	r24, 7
    292e:	90 81       	ld	r25, Z
    2930:	99 23       	and	r25, r25
    2932:	e9 f0       	breq	.+58     	; 0x296e <__printf_core+0x68>
    2934:	74 01       	movw	r14, r8
    2936:	86 01       	movw	r16, r12
    2938:	20 e8       	ldi	r18, 0x80	; 128
    293a:	30 e0       	ldi	r19, 0x00	; 0
    293c:	ae 01       	movw	r20, r28
    293e:	4c 5f       	subi	r20, 0xFC	; 252
    2940:	5f 4f       	sbci	r21, 0xFF	; 255
    2942:	be 01       	movw	r22, r28
    2944:	6f 5f       	subi	r22, 0xFF	; 255
    2946:	7f 4f       	sbci	r23, 0xFF	; 255
    2948:	c5 01       	movw	r24, r10
    294a:	0e 94 34 04 	call	0x868	; 0x868 <vfpfcnvrt>
    294e:	8c 0d       	add	r24, r12
    2950:	9d 1d       	adc	r25, r13
    2952:	8c 15       	cp	r24, r12
    2954:	9d 05       	cpc	r25, r13
    2956:	4c f4       	brge	.+18     	; 0x296a <__printf_core+0x64>
    2958:	8f e4       	ldi	r24, 0x4F	; 79
    295a:	90 e0       	ldi	r25, 0x00	; 0
    295c:	90 93 e3 02 	sts	0x02E3, r25	; 0x8002e3 <__errno_val+0x1>
    2960:	80 93 e2 02 	sts	0x02E2, r24	; 0x8002e2 <__errno_val>
    2964:	8f ef       	ldi	r24, 0xFF	; 255
    2966:	9f ef       	ldi	r25, 0xFF	; 255
    2968:	03 c0       	rjmp	.+6      	; 0x2970 <__printf_core+0x6a>
    296a:	6c 01       	movw	r12, r24
    296c:	d9 cf       	rjmp	.-78     	; 0x2920 <__printf_core+0x1a>
    296e:	c6 01       	movw	r24, r12
    2970:	cd 57       	subi	r28, 0x7D	; 125
    2972:	df 4f       	sbci	r29, 0xFF	; 255
    2974:	ec e0       	ldi	r30, 0x0C	; 12
    2976:	0c 94 6f 17 	jmp	0x2ede	; 0x2ede <__epilogue_restores__+0xc>

Disassembly of section .text.__read_int:

00001dc6 <__read_int>:
    1dc6:	a0 e0       	ldi	r26, 0x00	; 0
    1dc8:	b0 e0       	ldi	r27, 0x00	; 0
    1dca:	e9 ee       	ldi	r30, 0xE9	; 233
    1dcc:	fe e0       	ldi	r31, 0x0E	; 14
    1dce:	0c 94 53 17 	jmp	0x2ea6	; 0x2ea6 <__prologue_saves__+0xc>
    1dd2:	5c 01       	movw	r10, r24
    1dd4:	fb 01       	movw	r30, r22
    1dd6:	4a 01       	movw	r8, r20
    1dd8:	c4 80       	ldd	r12, Z+4	; 0x04
    1dda:	d5 80       	ldd	r13, Z+5	; 0x05
    1ddc:	00 85       	ldd	r16, Z+8	; 0x08
    1dde:	11 85       	ldd	r17, Z+9	; 0x09
    1de0:	e6 80       	ldd	r14, Z+6	; 0x06
    1de2:	f7 80       	ldd	r15, Z+7	; 0x07
    1de4:	0e 94 a9 16 	call	0x2d52	; 0x2d52 <__skipws>
    1de8:	f4 01       	movw	r30, r8
    1dea:	20 81       	ld	r18, Z
    1dec:	31 81       	ldd	r19, Z+1	; 0x01
    1dee:	82 0f       	add	r24, r18
    1df0:	93 1f       	adc	r25, r19
    1df2:	91 83       	std	Z+1, r25	; 0x01
    1df4:	80 83       	st	Z, r24
    1df6:	c1 14       	cp	r12, r1
    1df8:	d1 04       	cpc	r13, r1
    1dfa:	21 f4       	brne	.+8      	; 0x1e04 <__read_int+0x3e>
    1dfc:	68 01       	movw	r12, r16
    1dfe:	f1 e0       	ldi	r31, 0x01	; 1
    1e00:	cf 1a       	sub	r12, r31
    1e02:	d1 08       	sbc	r13, r1
    1e04:	c0 e0       	ldi	r28, 0x00	; 0
    1e06:	d0 e0       	ldi	r29, 0x00	; 0
    1e08:	01 50       	subi	r16, 0x01	; 1
    1e0a:	11 09       	sbc	r17, r1
    1e0c:	cc 15       	cp	r28, r12
    1e0e:	dd 05       	cpc	r29, r13
    1e10:	bc f5       	brge	.+110    	; 0x1e80 <__read_int+0xba>
    1e12:	c0 17       	cp	r28, r16
    1e14:	d1 07       	cpc	r29, r17
    1e16:	a4 f5       	brge	.+104    	; 0x1e80 <__read_int+0xba>
    1e18:	c5 01       	movw	r24, r10
    1e1a:	0e 94 29 11 	call	0x2252	; 0x2252 <fgetc>
    1e1e:	8f 3f       	cpi	r24, 0xFF	; 255
    1e20:	2f ef       	ldi	r18, 0xFF	; 255
    1e22:	92 07       	cpc	r25, r18
    1e24:	21 f4       	brne	.+8      	; 0x1e2e <__read_int+0x68>
    1e26:	1c 16       	cp	r1, r28
    1e28:	1d 06       	cpc	r1, r29
    1e2a:	54 f1       	brlt	.+84     	; 0x1e80 <__read_int+0xba>
    1e2c:	2f c0       	rjmp	.+94     	; 0x1e8c <__read_int+0xc6>
    1e2e:	20 97       	sbiw	r28, 0x00	; 0
    1e30:	89 f4       	brne	.+34     	; 0x1e54 <__read_int+0x8e>
    1e32:	8b 32       	cpi	r24, 0x2B	; 43
    1e34:	91 05       	cpc	r25, r1
    1e36:	19 f0       	breq	.+6      	; 0x1e3e <__read_int+0x78>
    1e38:	8d 32       	cpi	r24, 0x2D	; 45
    1e3a:	91 05       	cpc	r25, r1
    1e3c:	59 f4       	brne	.+22     	; 0x1e54 <__read_int+0x8e>
    1e3e:	f7 01       	movw	r30, r14
    1e40:	80 83       	st	Z, r24
    1e42:	f4 01       	movw	r30, r8
    1e44:	80 81       	ld	r24, Z
    1e46:	91 81       	ldd	r25, Z+1	; 0x01
    1e48:	01 96       	adiw	r24, 0x01	; 1
    1e4a:	91 83       	std	Z+1, r25	; 0x01
    1e4c:	80 83       	st	Z, r24
    1e4e:	c1 e0       	ldi	r28, 0x01	; 1
    1e50:	d0 e0       	ldi	r29, 0x00	; 0
    1e52:	dc cf       	rjmp	.-72     	; 0x1e0c <__read_int+0x46>
    1e54:	9c 01       	movw	r18, r24
    1e56:	20 53       	subi	r18, 0x30	; 48
    1e58:	31 09       	sbc	r19, r1
    1e5a:	2a 30       	cpi	r18, 0x0A	; 10
    1e5c:	31 05       	cpc	r19, r1
    1e5e:	20 f0       	brcs	.+8      	; 0x1e68 <__read_int+0xa2>
    1e60:	b5 01       	movw	r22, r10
    1e62:	0e 94 2e 17 	call	0x2e5c	; 0x2e5c <ungetc>
    1e66:	0c c0       	rjmp	.+24     	; 0x1e80 <__read_int+0xba>
    1e68:	f7 01       	movw	r30, r14
    1e6a:	ec 0f       	add	r30, r28
    1e6c:	fd 1f       	adc	r31, r29
    1e6e:	80 83       	st	Z, r24
    1e70:	21 96       	adiw	r28, 0x01	; 1
    1e72:	f4 01       	movw	r30, r8
    1e74:	80 81       	ld	r24, Z
    1e76:	91 81       	ldd	r25, Z+1	; 0x01
    1e78:	01 96       	adiw	r24, 0x01	; 1
    1e7a:	91 83       	std	Z+1, r25	; 0x01
    1e7c:	80 83       	st	Z, r24
    1e7e:	c6 cf       	rjmp	.-116    	; 0x1e0c <__read_int+0x46>
    1e80:	ce 0d       	add	r28, r14
    1e82:	df 1d       	adc	r29, r15
    1e84:	18 82       	st	Y, r1
    1e86:	80 e0       	ldi	r24, 0x00	; 0
    1e88:	90 e0       	ldi	r25, 0x00	; 0
    1e8a:	02 c0       	rjmp	.+4      	; 0x1e90 <__read_int+0xca>
    1e8c:	8f ef       	ldi	r24, 0xFF	; 255
    1e8e:	9f ef       	ldi	r25, 0xFF	; 255
    1e90:	cd b7       	in	r28, 0x3d	; 61
    1e92:	de b7       	in	r29, 0x3e	; 62
    1e94:	ec e0       	ldi	r30, 0x0C	; 12
    1e96:	0c 94 6f 17 	jmp	0x2ede	; 0x2ede <__epilogue_restores__+0xc>

Disassembly of section .text.__scan_d:

00002bde <__scan_d>:
    2bde:	0f 93       	push	r16
    2be0:	1f 93       	push	r17
    2be2:	cf 93       	push	r28
    2be4:	df 93       	push	r29
    2be6:	eb 01       	movw	r28, r22
    2be8:	ba 01       	movw	r22, r20
    2bea:	fa 01       	movw	r30, r20
    2bec:	06 81       	ldd	r16, Z+6	; 0x06
    2bee:	17 81       	ldd	r17, Z+7	; 0x07
    2bf0:	a9 01       	movw	r20, r18
    2bf2:	0e 94 e3 0e 	call	0x1dc6	; 0x1dc6 <__read_int>
    2bf6:	8f 3f       	cpi	r24, 0xFF	; 255
    2bf8:	ff ef       	ldi	r31, 0xFF	; 255
    2bfa:	9f 07       	cpc	r25, r31
    2bfc:	91 f0       	breq	.+36     	; 0x2c22 <__scan_d+0x44>
    2bfe:	b8 01       	movw	r22, r16
    2c00:	80 e8       	ldi	r24, 0x80	; 128
    2c02:	2a e0       	ldi	r18, 0x0A	; 10
    2c04:	30 e0       	ldi	r19, 0x00	; 0
    2c06:	40 e0       	ldi	r20, 0x00	; 0
    2c08:	50 e0       	ldi	r21, 0x00	; 0
    2c0a:	0e 94 13 19 	call	0x3226	; 0x3226 <strtoll>
    2c0e:	28 83       	st	Y, r18
    2c10:	39 83       	std	Y+1, r19	; 0x01
    2c12:	4a 83       	std	Y+2, r20	; 0x02
    2c14:	5b 83       	std	Y+3, r21	; 0x03
    2c16:	6c 83       	std	Y+4, r22	; 0x04
    2c18:	7d 83       	std	Y+5, r23	; 0x05
    2c1a:	8e 83       	std	Y+6, r24	; 0x06
    2c1c:	9f 83       	std	Y+7, r25	; 0x07
    2c1e:	80 e0       	ldi	r24, 0x00	; 0
    2c20:	90 e0       	ldi	r25, 0x00	; 0
    2c22:	df 91       	pop	r29
    2c24:	cf 91       	pop	r28
    2c26:	1f 91       	pop	r17
    2c28:	0f 91       	pop	r16
    2c2a:	08 95       	ret

Disassembly of section .text.__scan_i:

000013ce <__scan_i>:
    13ce:	a8 e0       	ldi	r26, 0x08	; 8
    13d0:	b0 e0       	ldi	r27, 0x00	; 0
    13d2:	ed ee       	ldi	r30, 0xED	; 237
    13d4:	f9 e0       	ldi	r31, 0x09	; 9
    13d6:	0c 94 4d 17 	jmp	0x2e9a	; 0x2e9a <__prologue_saves__>
    13da:	4c 01       	movw	r8, r24
    13dc:	78 87       	std	Y+8, r23	; 0x08
    13de:	6f 83       	std	Y+7, r22	; 0x07
    13e0:	fa 01       	movw	r30, r20
    13e2:	59 01       	movw	r10, r18
    13e4:	84 81       	ldd	r24, Z+4	; 0x04
    13e6:	95 81       	ldd	r25, Z+5	; 0x05
    13e8:	9a 83       	std	Y+2, r25	; 0x02
    13ea:	89 83       	std	Y+1, r24	; 0x01
    13ec:	e0 84       	ldd	r14, Z+8	; 0x08
    13ee:	f1 84       	ldd	r15, Z+9	; 0x09
    13f0:	26 80       	ldd	r2, Z+6	; 0x06
    13f2:	37 80       	ldd	r3, Z+7	; 0x07
    13f4:	c4 01       	movw	r24, r8
    13f6:	0e 94 a9 16 	call	0x2d52	; 0x2d52 <__skipws>
    13fa:	f5 01       	movw	r30, r10
    13fc:	20 81       	ld	r18, Z
    13fe:	31 81       	ldd	r19, Z+1	; 0x01
    1400:	82 0f       	add	r24, r18
    1402:	93 1f       	adc	r25, r19
    1404:	91 83       	std	Z+1, r25	; 0x01
    1406:	80 83       	st	Z, r24
    1408:	89 81       	ldd	r24, Y+1	; 0x01
    140a:	9a 81       	ldd	r25, Y+2	; 0x02
    140c:	89 2b       	or	r24, r25
    140e:	21 f4       	brne	.+8      	; 0x1418 <__scan_i+0x4a>
    1410:	f7 01       	movw	r30, r14
    1412:	31 97       	sbiw	r30, 0x01	; 1
    1414:	fa 83       	std	Y+2, r31	; 0x02
    1416:	e9 83       	std	Y+1, r30	; 0x01
    1418:	4a e0       	ldi	r20, 0x0A	; 10
    141a:	c4 2e       	mov	r12, r20
    141c:	d1 2c       	mov	r13, r1
    141e:	61 2c       	mov	r6, r1
    1420:	71 2c       	mov	r7, r1
    1422:	00 e0       	ldi	r16, 0x00	; 0
    1424:	10 e0       	ldi	r17, 0x00	; 0
    1426:	c7 01       	movw	r24, r14
    1428:	01 97       	sbiw	r24, 0x01	; 1
    142a:	9e 83       	std	Y+6, r25	; 0x06
    142c:	8d 83       	std	Y+5, r24	; 0x05
    142e:	89 81       	ldd	r24, Y+1	; 0x01
    1430:	9a 81       	ldd	r25, Y+2	; 0x02
    1432:	08 17       	cp	r16, r24
    1434:	19 07       	cpc	r17, r25
    1436:	0c f0       	brlt	.+2      	; 0x143a <__scan_i+0x6c>
    1438:	97 c0       	rjmp	.+302    	; 0x1568 <__scan_i+0x19a>
    143a:	ed 81       	ldd	r30, Y+5	; 0x05
    143c:	fe 81       	ldd	r31, Y+6	; 0x06
    143e:	0e 17       	cp	r16, r30
    1440:	1f 07       	cpc	r17, r31
    1442:	0c f0       	brlt	.+2      	; 0x1446 <__scan_i+0x78>
    1444:	91 c0       	rjmp	.+290    	; 0x1568 <__scan_i+0x19a>
    1446:	c4 01       	movw	r24, r8
    1448:	0e 94 29 11 	call	0x2252	; 0x2252 <fgetc>
    144c:	7c 01       	movw	r14, r24
    144e:	9f ef       	ldi	r25, 0xFF	; 255
    1450:	e9 16       	cp	r14, r25
    1452:	f9 06       	cpc	r15, r25
    1454:	39 f4       	brne	.+14     	; 0x1464 <__scan_i+0x96>
    1456:	10 16       	cp	r1, r16
    1458:	11 06       	cpc	r1, r17
    145a:	0c f4       	brge	.+2      	; 0x145e <__scan_i+0x90>
    145c:	85 c0       	rjmp	.+266    	; 0x1568 <__scan_i+0x19a>
    145e:	8f ef       	ldi	r24, 0xFF	; 255
    1460:	9f ef       	ldi	r25, 0xFF	; 255
    1462:	a4 c0       	rjmp	.+328    	; 0x15ac <__scan_i+0x1de>
    1464:	01 15       	cp	r16, r1
    1466:	11 05       	cpc	r17, r1
    1468:	b1 f4       	brne	.+44     	; 0x1496 <__scan_i+0xc8>
    146a:	eb e2       	ldi	r30, 0x2B	; 43
    146c:	ee 16       	cp	r14, r30
    146e:	f1 04       	cpc	r15, r1
    1470:	21 f0       	breq	.+8      	; 0x147a <__scan_i+0xac>
    1472:	fd e2       	ldi	r31, 0x2D	; 45
    1474:	ef 16       	cp	r14, r31
    1476:	f1 04       	cpc	r15, r1
    1478:	71 f4       	brne	.+28     	; 0x1496 <__scan_i+0xc8>
    147a:	f1 01       	movw	r30, r2
    147c:	e0 82       	st	Z, r14
    147e:	f5 01       	movw	r30, r10
    1480:	80 81       	ld	r24, Z
    1482:	91 81       	ldd	r25, Z+1	; 0x01
    1484:	01 96       	adiw	r24, 0x01	; 1
    1486:	91 83       	std	Z+1, r25	; 0x01
    1488:	80 83       	st	Z, r24
    148a:	66 24       	eor	r6, r6
    148c:	63 94       	inc	r6
    148e:	71 2c       	mov	r7, r1
    1490:	01 e0       	ldi	r16, 0x01	; 1
    1492:	10 e0       	ldi	r17, 0x00	; 0
    1494:	cc cf       	rjmp	.-104    	; 0x142e <__scan_i+0x60>
    1496:	c1 01       	movw	r24, r2
    1498:	80 0f       	add	r24, r16
    149a:	91 1f       	adc	r25, r17
    149c:	9c 83       	std	Y+4, r25	; 0x04
    149e:	8b 83       	std	Y+3, r24	; 0x03
    14a0:	06 15       	cp	r16, r6
    14a2:	17 05       	cpc	r17, r7
    14a4:	c1 f5       	brne	.+112    	; 0x1516 <__scan_i+0x148>
    14a6:	38 01       	movw	r6, r16
    14a8:	9f ef       	ldi	r25, 0xFF	; 255
    14aa:	69 1a       	sub	r6, r25
    14ac:	79 0a       	sbc	r7, r25
    14ae:	ea e0       	ldi	r30, 0x0A	; 10
    14b0:	ce 16       	cp	r12, r30
    14b2:	d1 04       	cpc	r13, r1
    14b4:	41 f4       	brne	.+16     	; 0x14c6 <__scan_i+0xf8>
    14b6:	f0 e3       	ldi	r31, 0x30	; 48
    14b8:	ef 16       	cp	r14, r31
    14ba:	f1 04       	cpc	r15, r1
    14bc:	51 f5       	brne	.+84     	; 0x1512 <__scan_i+0x144>
    14be:	28 e0       	ldi	r18, 0x08	; 8
    14c0:	c2 2e       	mov	r12, r18
    14c2:	d1 2c       	mov	r13, r1
    14c4:	28 c0       	rjmp	.+80     	; 0x1516 <__scan_i+0x148>
    14c6:	88 e0       	ldi	r24, 0x08	; 8
    14c8:	c8 16       	cp	r12, r24
    14ca:	d1 04       	cpc	r13, r1
    14cc:	11 f5       	brne	.+68     	; 0x1512 <__scan_i+0x144>
    14ce:	c7 01       	movw	r24, r14
    14d0:	80 62       	ori	r24, 0x20	; 32
    14d2:	88 37       	cpi	r24, 0x78	; 120
    14d4:	91 05       	cpc	r25, r1
    14d6:	e9 f4       	brne	.+58     	; 0x1512 <__scan_i+0x144>
    14d8:	c4 01       	movw	r24, r8
    14da:	0e 94 29 11 	call	0x2252	; 0x2252 <fgetc>
    14de:	2c 01       	movw	r4, r24
    14e0:	b4 01       	movw	r22, r8
    14e2:	0e 94 2e 17 	call	0x2e5c	; 0x2e5c <ungetc>
    14e6:	c2 01       	movw	r24, r4
    14e8:	0e 94 fa 17 	call	0x2ff4	; 0x2ff4 <isxdigit>
    14ec:	89 2b       	or	r24, r25
    14ee:	71 f0       	breq	.+28     	; 0x150c <__scan_i+0x13e>
    14f0:	eb 81       	ldd	r30, Y+3	; 0x03
    14f2:	fc 81       	ldd	r31, Y+4	; 0x04
    14f4:	e0 82       	st	Z, r14
    14f6:	83 01       	movw	r16, r6
    14f8:	f5 01       	movw	r30, r10
    14fa:	80 81       	ld	r24, Z
    14fc:	91 81       	ldd	r25, Z+1	; 0x01
    14fe:	01 96       	adiw	r24, 0x01	; 1
    1500:	91 83       	std	Z+1, r25	; 0x01
    1502:	80 83       	st	Z, r24
    1504:	90 e1       	ldi	r25, 0x10	; 16
    1506:	c9 2e       	mov	r12, r25
    1508:	d1 2c       	mov	r13, r1
    150a:	91 cf       	rjmp	.-222    	; 0x142e <__scan_i+0x60>
    150c:	b4 01       	movw	r22, r8
    150e:	c2 01       	movw	r24, r4
    1510:	11 c0       	rjmp	.+34     	; 0x1534 <__scan_i+0x166>
    1512:	61 2c       	mov	r6, r1
    1514:	71 2c       	mov	r7, r1
    1516:	c7 01       	movw	r24, r14
    1518:	c0 97       	sbiw	r24, 0x30	; 48
    151a:	0a 97       	sbiw	r24, 0x0a	; 10
    151c:	70 f0       	brcs	.+28     	; 0x153a <__scan_i+0x16c>
    151e:	f0 e1       	ldi	r31, 0x10	; 16
    1520:	cf 16       	cp	r12, r31
    1522:	d1 04       	cpc	r13, r1
    1524:	29 f4       	brne	.+10     	; 0x1530 <__scan_i+0x162>
    1526:	c7 01       	movw	r24, r14
    1528:	0e 94 fa 17 	call	0x2ff4	; 0x2ff4 <isxdigit>
    152c:	89 2b       	or	r24, r25
    152e:	81 f4       	brne	.+32     	; 0x1550 <__scan_i+0x182>
    1530:	b4 01       	movw	r22, r8
    1532:	c7 01       	movw	r24, r14
    1534:	0e 94 2e 17 	call	0x2e5c	; 0x2e5c <ungetc>
    1538:	17 c0       	rjmp	.+46     	; 0x1568 <__scan_i+0x19a>
    153a:	88 e0       	ldi	r24, 0x08	; 8
    153c:	c8 16       	cp	r12, r24
    153e:	d1 04       	cpc	r13, r1
    1540:	39 f4       	brne	.+14     	; 0x1550 <__scan_i+0x182>
    1542:	98 e3       	ldi	r25, 0x38	; 56
    1544:	e9 16       	cp	r14, r25
    1546:	f1 04       	cpc	r15, r1
    1548:	1c f0       	brlt	.+6      	; 0x1550 <__scan_i+0x182>
    154a:	8a e0       	ldi	r24, 0x0A	; 10
    154c:	c8 2e       	mov	r12, r24
    154e:	d1 2c       	mov	r13, r1
    1550:	eb 81       	ldd	r30, Y+3	; 0x03
    1552:	fc 81       	ldd	r31, Y+4	; 0x04
    1554:	e0 82       	st	Z, r14
    1556:	0f 5f       	subi	r16, 0xFF	; 255
    1558:	1f 4f       	sbci	r17, 0xFF	; 255
    155a:	f5 01       	movw	r30, r10
    155c:	80 81       	ld	r24, Z
    155e:	91 81       	ldd	r25, Z+1	; 0x01
    1560:	01 96       	adiw	r24, 0x01	; 1
    1562:	91 83       	std	Z+1, r25	; 0x01
    1564:	80 83       	st	Z, r24
    1566:	63 cf       	rjmp	.-314    	; 0x142e <__scan_i+0x60>
    1568:	f1 01       	movw	r30, r2
    156a:	e0 0f       	add	r30, r16
    156c:	f1 1f       	adc	r31, r17
    156e:	10 82       	st	Z, r1
    1570:	b1 01       	movw	r22, r2
    1572:	80 e8       	ldi	r24, 0x80	; 128
    1574:	fa e0       	ldi	r31, 0x0A	; 10
    1576:	cf 16       	cp	r12, r31
    1578:	d1 04       	cpc	r13, r1
    157a:	39 f4       	brne	.+14     	; 0x158a <__scan_i+0x1bc>
    157c:	2a e0       	ldi	r18, 0x0A	; 10
    157e:	30 e0       	ldi	r19, 0x00	; 0
    1580:	40 e0       	ldi	r20, 0x00	; 0
    1582:	50 e0       	ldi	r21, 0x00	; 0
    1584:	0e 94 13 19 	call	0x3226	; 0x3226 <strtoll>
    1588:	05 c0       	rjmp	.+10     	; 0x1594 <__scan_i+0x1c6>
    158a:	96 01       	movw	r18, r12
    158c:	40 e0       	ldi	r20, 0x00	; 0
    158e:	50 e0       	ldi	r21, 0x00	; 0
    1590:	0e 94 19 19 	call	0x3232	; 0x3232 <strtoull>
    1594:	ef 81       	ldd	r30, Y+7	; 0x07
    1596:	f8 85       	ldd	r31, Y+8	; 0x08
    1598:	20 83       	st	Z, r18
    159a:	31 83       	std	Z+1, r19	; 0x01
    159c:	42 83       	std	Z+2, r20	; 0x02
    159e:	53 83       	std	Z+3, r21	; 0x03
    15a0:	64 83       	std	Z+4, r22	; 0x04
    15a2:	75 83       	std	Z+5, r23	; 0x05
    15a4:	86 83       	std	Z+6, r24	; 0x06
    15a6:	97 83       	std	Z+7, r25	; 0x07
    15a8:	80 e0       	ldi	r24, 0x00	; 0
    15aa:	90 e0       	ldi	r25, 0x00	; 0
    15ac:	28 96       	adiw	r28, 0x08	; 8
    15ae:	e2 e1       	ldi	r30, 0x12	; 18
    15b0:	0c 94 69 17 	jmp	0x2ed2	; 0x2ed2 <__epilogue_restores__>

Disassembly of section .text.__scan_o:

00001cf0 <__scan_o>:
    1cf0:	a0 e0       	ldi	r26, 0x00	; 0
    1cf2:	b0 e0       	ldi	r27, 0x00	; 0
    1cf4:	ee e7       	ldi	r30, 0x7E	; 126
    1cf6:	fe e0       	ldi	r31, 0x0E	; 14
    1cf8:	0c 94 4f 17 	jmp	0x2e9e	; 0x2e9e <__prologue_saves__+0x4>
    1cfc:	4c 01       	movw	r8, r24
    1cfe:	eb 01       	movw	r28, r22
    1d00:	fa 01       	movw	r30, r20
    1d02:	69 01       	movw	r12, r18
    1d04:	a4 80       	ldd	r10, Z+4	; 0x04
    1d06:	b5 80       	ldd	r11, Z+5	; 0x05
    1d08:	60 84       	ldd	r6, Z+8	; 0x08
    1d0a:	71 84       	ldd	r7, Z+9	; 0x09
    1d0c:	e6 80       	ldd	r14, Z+6	; 0x06
    1d0e:	f7 80       	ldd	r15, Z+7	; 0x07
    1d10:	0e 94 a9 16 	call	0x2d52	; 0x2d52 <__skipws>
    1d14:	f6 01       	movw	r30, r12
    1d16:	20 81       	ld	r18, Z
    1d18:	31 81       	ldd	r19, Z+1	; 0x01
    1d1a:	82 0f       	add	r24, r18
    1d1c:	93 1f       	adc	r25, r19
    1d1e:	91 83       	std	Z+1, r25	; 0x01
    1d20:	80 83       	st	Z, r24
    1d22:	a1 14       	cp	r10, r1
    1d24:	b1 04       	cpc	r11, r1
    1d26:	21 f4       	brne	.+8      	; 0x1d30 <__scan_o+0x40>
    1d28:	53 01       	movw	r10, r6
    1d2a:	f1 e0       	ldi	r31, 0x01	; 1
    1d2c:	af 1a       	sub	r10, r31
    1d2e:	b1 08       	sbc	r11, r1
    1d30:	27 01       	movw	r4, r14
    1d32:	00 e0       	ldi	r16, 0x00	; 0
    1d34:	10 e0       	ldi	r17, 0x00	; 0
    1d36:	21 e0       	ldi	r18, 0x01	; 1
    1d38:	62 1a       	sub	r6, r18
    1d3a:	71 08       	sbc	r7, r1
    1d3c:	0a 15       	cp	r16, r10
    1d3e:	1b 05       	cpc	r17, r11
    1d40:	24 f5       	brge	.+72     	; 0x1d8a <__scan_o+0x9a>
    1d42:	06 15       	cp	r16, r6
    1d44:	17 05       	cpc	r17, r7
    1d46:	0c f5       	brge	.+66     	; 0x1d8a <__scan_o+0x9a>
    1d48:	c4 01       	movw	r24, r8
    1d4a:	0e 94 29 11 	call	0x2252	; 0x2252 <fgetc>
    1d4e:	8f 3f       	cpi	r24, 0xFF	; 255
    1d50:	ef ef       	ldi	r30, 0xFF	; 255
    1d52:	9e 07       	cpc	r25, r30
    1d54:	21 f4       	brne	.+8      	; 0x1d5e <__scan_o+0x6e>
    1d56:	10 16       	cp	r1, r16
    1d58:	11 06       	cpc	r1, r17
    1d5a:	bc f0       	brlt	.+46     	; 0x1d8a <__scan_o+0x9a>
    1d5c:	2d c0       	rjmp	.+90     	; 0x1db8 <__scan_o+0xc8>
    1d5e:	9c 01       	movw	r18, r24
    1d60:	20 53       	subi	r18, 0x30	; 48
    1d62:	31 09       	sbc	r19, r1
    1d64:	28 30       	cpi	r18, 0x08	; 8
    1d66:	31 05       	cpc	r19, r1
    1d68:	20 f0       	brcs	.+8      	; 0x1d72 <__scan_o+0x82>
    1d6a:	b4 01       	movw	r22, r8
    1d6c:	0e 94 2e 17 	call	0x2e5c	; 0x2e5c <ungetc>
    1d70:	0c c0       	rjmp	.+24     	; 0x1d8a <__scan_o+0x9a>
    1d72:	f2 01       	movw	r30, r4
    1d74:	81 93       	st	Z+, r24
    1d76:	2f 01       	movw	r4, r30
    1d78:	0f 5f       	subi	r16, 0xFF	; 255
    1d7a:	1f 4f       	sbci	r17, 0xFF	; 255
    1d7c:	f6 01       	movw	r30, r12
    1d7e:	80 81       	ld	r24, Z
    1d80:	91 81       	ldd	r25, Z+1	; 0x01
    1d82:	01 96       	adiw	r24, 0x01	; 1
    1d84:	91 83       	std	Z+1, r25	; 0x01
    1d86:	80 83       	st	Z, r24
    1d88:	d9 cf       	rjmp	.-78     	; 0x1d3c <__scan_o+0x4c>
    1d8a:	f7 01       	movw	r30, r14
    1d8c:	e0 0f       	add	r30, r16
    1d8e:	f1 1f       	adc	r31, r17
    1d90:	10 82       	st	Z, r1
    1d92:	b7 01       	movw	r22, r14
    1d94:	80 e8       	ldi	r24, 0x80	; 128
    1d96:	28 e0       	ldi	r18, 0x08	; 8
    1d98:	30 e0       	ldi	r19, 0x00	; 0
    1d9a:	40 e0       	ldi	r20, 0x00	; 0
    1d9c:	50 e0       	ldi	r21, 0x00	; 0
    1d9e:	0e 94 19 19 	call	0x3232	; 0x3232 <strtoull>
    1da2:	28 83       	st	Y, r18
    1da4:	39 83       	std	Y+1, r19	; 0x01
    1da6:	4a 83       	std	Y+2, r20	; 0x02
    1da8:	5b 83       	std	Y+3, r21	; 0x03
    1daa:	6c 83       	std	Y+4, r22	; 0x04
    1dac:	7d 83       	std	Y+5, r23	; 0x05
    1dae:	8e 83       	std	Y+6, r24	; 0x06
    1db0:	9f 83       	std	Y+7, r25	; 0x07
    1db2:	80 e0       	ldi	r24, 0x00	; 0
    1db4:	90 e0       	ldi	r25, 0x00	; 0
    1db6:	02 c0       	rjmp	.+4      	; 0x1dbc <__scan_o+0xcc>
    1db8:	8f ef       	ldi	r24, 0xFF	; 255
    1dba:	9f ef       	ldi	r25, 0xFF	; 255
    1dbc:	cd b7       	in	r28, 0x3d	; 61
    1dbe:	de b7       	in	r29, 0x3e	; 62
    1dc0:	e0 e1       	ldi	r30, 0x10	; 16
    1dc2:	0c 94 6b 17 	jmp	0x2ed6	; 0x2ed6 <__epilogue_restores__+0x4>

Disassembly of section .text.__scan_s:

00001e9a <__scan_s>:
    1e9a:	a0 e0       	ldi	r26, 0x00	; 0
    1e9c:	b0 e0       	ldi	r27, 0x00	; 0
    1e9e:	e3 e5       	ldi	r30, 0x53	; 83
    1ea0:	ff e0       	ldi	r31, 0x0F	; 15
    1ea2:	0c 94 51 17 	jmp	0x2ea2	; 0x2ea2 <__prologue_saves__+0x8>
    1ea6:	6c 01       	movw	r12, r24
    1ea8:	eb 01       	movw	r28, r22
    1eaa:	5a 01       	movw	r10, r20
    1eac:	79 01       	movw	r14, r18
    1eae:	45 2b       	or	r20, r21
    1eb0:	49 f0       	breq	.+18     	; 0x1ec4 <__scan_s+0x2a>
    1eb2:	0e 94 a9 16 	call	0x2d52	; 0x2d52 <__skipws>
    1eb6:	f7 01       	movw	r30, r14
    1eb8:	20 81       	ld	r18, Z
    1eba:	31 81       	ldd	r19, Z+1	; 0x01
    1ebc:	82 0f       	add	r24, r18
    1ebe:	93 1f       	adc	r25, r19
    1ec0:	91 83       	std	Z+1, r25	; 0x01
    1ec2:	80 83       	st	Z, r24
    1ec4:	6c 80       	ldd	r6, Y+4	; 0x04
    1ec6:	7d 80       	ldd	r7, Y+5	; 0x05
    1ec8:	48 01       	movw	r8, r16
    1eca:	c0 e0       	ldi	r28, 0x00	; 0
    1ecc:	d0 e0       	ldi	r29, 0x00	; 0
    1ece:	61 14       	cp	r6, r1
    1ed0:	71 04       	cpc	r7, r1
    1ed2:	49 f5       	brne	.+82     	; 0x1f26 <__scan_s+0x8c>
    1ed4:	c6 01       	movw	r24, r12
    1ed6:	0e 94 29 11 	call	0x2252	; 0x2252 <fgetc>
    1eda:	8f 3f       	cpi	r24, 0xFF	; 255
    1edc:	ff ef       	ldi	r31, 0xFF	; 255
    1ede:	9f 07       	cpc	r25, r31
    1ee0:	31 f4       	brne	.+12     	; 0x1eee <__scan_s+0x54>
    1ee2:	20 97       	sbiw	r28, 0x00	; 0
    1ee4:	89 f1       	breq	.+98     	; 0x1f48 <__scan_s+0xae>
    1ee6:	01 15       	cp	r16, r1
    1ee8:	11 05       	cpc	r17, r1
    1eea:	09 f5       	brne	.+66     	; 0x1f2e <__scan_s+0x94>
    1eec:	27 c0       	rjmp	.+78     	; 0x1f3c <__scan_s+0xa2>
    1eee:	a1 14       	cp	r10, r1
    1ef0:	b1 04       	cpc	r11, r1
    1ef2:	49 f0       	breq	.+18     	; 0x1f06 <__scan_s+0x6c>
    1ef4:	80 32       	cpi	r24, 0x20	; 32
    1ef6:	91 05       	cpc	r25, r1
    1ef8:	51 f1       	breq	.+84     	; 0x1f4e <__scan_s+0xb4>
    1efa:	9c 01       	movw	r18, r24
    1efc:	29 50       	subi	r18, 0x09	; 9
    1efe:	31 09       	sbc	r19, r1
    1f00:	25 30       	cpi	r18, 0x05	; 5
    1f02:	31 05       	cpc	r19, r1
    1f04:	20 f1       	brcs	.+72     	; 0x1f4e <__scan_s+0xb4>
    1f06:	01 15       	cp	r16, r1
    1f08:	11 05       	cpc	r17, r1
    1f0a:	11 f0       	breq	.+4      	; 0x1f10 <__scan_s+0x76>
    1f0c:	f4 01       	movw	r30, r8
    1f0e:	80 83       	st	Z, r24
    1f10:	21 96       	adiw	r28, 0x01	; 1
    1f12:	f7 01       	movw	r30, r14
    1f14:	80 81       	ld	r24, Z
    1f16:	91 81       	ldd	r25, Z+1	; 0x01
    1f18:	01 96       	adiw	r24, 0x01	; 1
    1f1a:	91 83       	std	Z+1, r25	; 0x01
    1f1c:	80 83       	st	Z, r24
    1f1e:	ff ef       	ldi	r31, 0xFF	; 255
    1f20:	8f 1a       	sub	r8, r31
    1f22:	9f 0a       	sbc	r9, r31
    1f24:	d4 cf       	rjmp	.-88     	; 0x1ece <__scan_s+0x34>
    1f26:	c6 15       	cp	r28, r6
    1f28:	d7 05       	cpc	r29, r7
    1f2a:	a4 f2       	brlt	.-88     	; 0x1ed4 <__scan_s+0x3a>
    1f2c:	dc cf       	rjmp	.-72     	; 0x1ee6 <__scan_s+0x4c>
    1f2e:	a1 14       	cp	r10, r1
    1f30:	b1 04       	cpc	r11, r1
    1f32:	21 f0       	breq	.+8      	; 0x1f3c <__scan_s+0xa2>
    1f34:	f8 01       	movw	r30, r16
    1f36:	ec 0f       	add	r30, r28
    1f38:	fd 1f       	adc	r31, r29
    1f3a:	10 82       	st	Z, r1
    1f3c:	81 e0       	ldi	r24, 0x01	; 1
    1f3e:	90 e0       	ldi	r25, 0x00	; 0
    1f40:	cd 2b       	or	r28, r29
    1f42:	61 f4       	brne	.+24     	; 0x1f5c <__scan_s+0xc2>
    1f44:	80 e0       	ldi	r24, 0x00	; 0
    1f46:	0a c0       	rjmp	.+20     	; 0x1f5c <__scan_s+0xc2>
    1f48:	8f ef       	ldi	r24, 0xFF	; 255
    1f4a:	9f ef       	ldi	r25, 0xFF	; 255
    1f4c:	07 c0       	rjmp	.+14     	; 0x1f5c <__scan_s+0xc2>
    1f4e:	b6 01       	movw	r22, r12
    1f50:	0e 94 2e 17 	call	0x2e5c	; 0x2e5c <ungetc>
    1f54:	01 15       	cp	r16, r1
    1f56:	11 05       	cpc	r17, r1
    1f58:	89 f3       	breq	.-30     	; 0x1f3c <__scan_s+0xa2>
    1f5a:	ec cf       	rjmp	.-40     	; 0x1f34 <__scan_s+0x9a>
    1f5c:	cd b7       	in	r28, 0x3d	; 61
    1f5e:	de b7       	in	r29, 0x3e	; 62
    1f60:	ee e0       	ldi	r30, 0x0E	; 14
    1f62:	0c 94 6d 17 	jmp	0x2eda	; 0x2eda <__epilogue_restores__+0x8>

Disassembly of section .text.__scan_u:

00002c2c <__scan_u>:
    2c2c:	0f 93       	push	r16
    2c2e:	1f 93       	push	r17
    2c30:	cf 93       	push	r28
    2c32:	df 93       	push	r29
    2c34:	eb 01       	movw	r28, r22
    2c36:	ba 01       	movw	r22, r20
    2c38:	fa 01       	movw	r30, r20
    2c3a:	06 81       	ldd	r16, Z+6	; 0x06
    2c3c:	17 81       	ldd	r17, Z+7	; 0x07
    2c3e:	a9 01       	movw	r20, r18
    2c40:	0e 94 e3 0e 	call	0x1dc6	; 0x1dc6 <__read_int>
    2c44:	8f 3f       	cpi	r24, 0xFF	; 255
    2c46:	ff ef       	ldi	r31, 0xFF	; 255
    2c48:	9f 07       	cpc	r25, r31
    2c4a:	91 f0       	breq	.+36     	; 0x2c70 <__scan_u+0x44>
    2c4c:	b8 01       	movw	r22, r16
    2c4e:	80 e8       	ldi	r24, 0x80	; 128
    2c50:	2a e0       	ldi	r18, 0x0A	; 10
    2c52:	30 e0       	ldi	r19, 0x00	; 0
    2c54:	40 e0       	ldi	r20, 0x00	; 0
    2c56:	50 e0       	ldi	r21, 0x00	; 0
    2c58:	0e 94 19 19 	call	0x3232	; 0x3232 <strtoull>
    2c5c:	28 83       	st	Y, r18
    2c5e:	39 83       	std	Y+1, r19	; 0x01
    2c60:	4a 83       	std	Y+2, r20	; 0x02
    2c62:	5b 83       	std	Y+3, r21	; 0x03
    2c64:	6c 83       	std	Y+4, r22	; 0x04
    2c66:	7d 83       	std	Y+5, r23	; 0x05
    2c68:	8e 83       	std	Y+6, r24	; 0x06
    2c6a:	9f 83       	std	Y+7, r25	; 0x07
    2c6c:	80 e0       	ldi	r24, 0x00	; 0
    2c6e:	90 e0       	ldi	r25, 0x00	; 0
    2c70:	df 91       	pop	r29
    2c72:	cf 91       	pop	r28
    2c74:	1f 91       	pop	r17
    2c76:	0f 91       	pop	r16
    2c78:	08 95       	ret

Disassembly of section .text.__scan_x:

0000178e <__scan_x>:
    178e:	a4 e0       	ldi	r26, 0x04	; 4
    1790:	b0 e0       	ldi	r27, 0x00	; 0
    1792:	ed ec       	ldi	r30, 0xCD	; 205
    1794:	fb e0       	ldi	r31, 0x0B	; 11
    1796:	0c 94 4d 17 	jmp	0x2e9a	; 0x2e9a <__prologue_saves__>
    179a:	7c 01       	movw	r14, r24
    179c:	7c 83       	std	Y+4, r23	; 0x04
    179e:	6b 83       	std	Y+3, r22	; 0x03
    17a0:	fa 01       	movw	r30, r20
    17a2:	59 01       	movw	r10, r18
    17a4:	44 80       	ldd	r4, Z+4	; 0x04
    17a6:	55 80       	ldd	r5, Z+5	; 0x05
    17a8:	c0 84       	ldd	r12, Z+8	; 0x08
    17aa:	d1 84       	ldd	r13, Z+9	; 0x09
    17ac:	66 80       	ldd	r6, Z+6	; 0x06
    17ae:	77 80       	ldd	r7, Z+7	; 0x07
    17b0:	0e 94 a9 16 	call	0x2d52	; 0x2d52 <__skipws>
    17b4:	f5 01       	movw	r30, r10
    17b6:	20 81       	ld	r18, Z
    17b8:	31 81       	ldd	r19, Z+1	; 0x01
    17ba:	82 0f       	add	r24, r18
    17bc:	93 1f       	adc	r25, r19
    17be:	91 83       	std	Z+1, r25	; 0x01
    17c0:	80 83       	st	Z, r24
    17c2:	41 14       	cp	r4, r1
    17c4:	51 04       	cpc	r5, r1
    17c6:	21 f4       	brne	.+8      	; 0x17d0 <__scan_x+0x42>
    17c8:	26 01       	movw	r4, r12
    17ca:	f1 e0       	ldi	r31, 0x01	; 1
    17cc:	4f 1a       	sub	r4, r31
    17ce:	51 08       	sbc	r5, r1
    17d0:	13 01       	movw	r2, r6
    17d2:	00 e0       	ldi	r16, 0x00	; 0
    17d4:	10 e0       	ldi	r17, 0x00	; 0
    17d6:	c6 01       	movw	r24, r12
    17d8:	01 97       	sbiw	r24, 0x01	; 1
    17da:	9a 83       	std	Y+2, r25	; 0x02
    17dc:	89 83       	std	Y+1, r24	; 0x01
    17de:	04 15       	cp	r16, r4
    17e0:	15 05       	cpc	r17, r5
    17e2:	0c f0       	brlt	.+2      	; 0x17e6 <__scan_x+0x58>
    17e4:	42 c0       	rjmp	.+132    	; 0x186a <__scan_x+0xdc>
    17e6:	89 81       	ldd	r24, Y+1	; 0x01
    17e8:	9a 81       	ldd	r25, Y+2	; 0x02
    17ea:	08 17       	cp	r16, r24
    17ec:	19 07       	cpc	r17, r25
    17ee:	ec f5       	brge	.+122    	; 0x186a <__scan_x+0xdc>
    17f0:	c7 01       	movw	r24, r14
    17f2:	0e 94 29 11 	call	0x2252	; 0x2252 <fgetc>
    17f6:	6c 01       	movw	r12, r24
    17f8:	9f ef       	ldi	r25, 0xFF	; 255
    17fa:	c9 16       	cp	r12, r25
    17fc:	d9 06       	cpc	r13, r25
    17fe:	31 f4       	brne	.+12     	; 0x180c <__scan_x+0x7e>
    1800:	10 16       	cp	r1, r16
    1802:	11 06       	cpc	r1, r17
    1804:	94 f1       	brlt	.+100    	; 0x186a <__scan_x+0xdc>
    1806:	8f ef       	ldi	r24, 0xFF	; 255
    1808:	9f ef       	ldi	r25, 0xFF	; 255
    180a:	64 c0       	rjmp	.+200    	; 0x18d4 <__scan_x+0x146>
    180c:	c6 01       	movw	r24, r12
    180e:	0e 94 fa 17 	call	0x2ff4	; 0x2ff4 <isxdigit>
    1812:	89 2b       	or	r24, r25
    1814:	f1 f4       	brne	.+60     	; 0x1852 <__scan_x+0xc4>
    1816:	01 30       	cpi	r16, 0x01	; 1
    1818:	11 05       	cpc	r17, r1
    181a:	b1 f4       	brne	.+44     	; 0x1848 <__scan_x+0xba>
    181c:	c6 01       	movw	r24, r12
    181e:	0e 94 0b 19 	call	0x3216	; 0x3216 <tolower>
    1822:	88 37       	cpi	r24, 0x78	; 120
    1824:	91 05       	cpc	r25, r1
    1826:	81 f4       	brne	.+32     	; 0x1848 <__scan_x+0xba>
    1828:	f3 01       	movw	r30, r6
    182a:	80 81       	ld	r24, Z
    182c:	80 33       	cpi	r24, 0x30	; 48
    182e:	61 f4       	brne	.+24     	; 0x1848 <__scan_x+0xba>
    1830:	c7 01       	movw	r24, r14
    1832:	0e 94 29 11 	call	0x2252	; 0x2252 <fgetc>
    1836:	4c 01       	movw	r8, r24
    1838:	b7 01       	movw	r22, r14
    183a:	0e 94 2e 17 	call	0x2e5c	; 0x2e5c <ungetc>
    183e:	c4 01       	movw	r24, r8
    1840:	0e 94 fa 17 	call	0x2ff4	; 0x2ff4 <isxdigit>
    1844:	89 2b       	or	r24, r25
    1846:	29 f4       	brne	.+10     	; 0x1852 <__scan_x+0xc4>
    1848:	b7 01       	movw	r22, r14
    184a:	c6 01       	movw	r24, r12
    184c:	0e 94 2e 17 	call	0x2e5c	; 0x2e5c <ungetc>
    1850:	0c c0       	rjmp	.+24     	; 0x186a <__scan_x+0xdc>
    1852:	f1 01       	movw	r30, r2
    1854:	c1 92       	st	Z+, r12
    1856:	1f 01       	movw	r2, r30
    1858:	0f 5f       	subi	r16, 0xFF	; 255
    185a:	1f 4f       	sbci	r17, 0xFF	; 255
    185c:	f5 01       	movw	r30, r10
    185e:	80 81       	ld	r24, Z
    1860:	91 81       	ldd	r25, Z+1	; 0x01
    1862:	01 96       	adiw	r24, 0x01	; 1
    1864:	91 83       	std	Z+1, r25	; 0x01
    1866:	80 83       	st	Z, r24
    1868:	ba cf       	rjmp	.-140    	; 0x17de <__scan_x+0x50>
    186a:	d3 01       	movw	r26, r6
    186c:	a0 0f       	add	r26, r16
    186e:	b1 1f       	adc	r27, r17
    1870:	1c 92       	st	X, r1
    1872:	03 30       	cpi	r16, 0x03	; 3
    1874:	11 05       	cpc	r17, r1
    1876:	3c f4       	brge	.+14     	; 0x1886 <__scan_x+0xf8>
    1878:	eb 81       	ldd	r30, Y+3	; 0x03
    187a:	fc 81       	ldd	r31, Y+4	; 0x04
    187c:	10 82       	st	Z, r1
    187e:	11 82       	std	Z+1, r1	; 0x01
    1880:	12 82       	std	Z+2, r1	; 0x02
    1882:	13 82       	std	Z+3, r1	; 0x03
    1884:	21 c0       	rjmp	.+66     	; 0x18c8 <__scan_x+0x13a>
    1886:	f3 01       	movw	r30, r6
    1888:	32 96       	adiw	r30, 0x02	; 2
    188a:	00 e0       	ldi	r16, 0x00	; 0
    188c:	10 e0       	ldi	r17, 0x00	; 0
    188e:	98 01       	movw	r18, r16
    1890:	81 91       	ld	r24, Z+
    1892:	90 ed       	ldi	r25, 0xD0	; 208
    1894:	98 0f       	add	r25, r24
    1896:	9a 30       	cpi	r25, 0x0A	; 10
    1898:	18 f0       	brcs	.+6      	; 0x18a0 <__scan_x+0x112>
    189a:	80 62       	ori	r24, 0x20	; 32
    189c:	99 ea       	ldi	r25, 0xA9	; 169
    189e:	98 0f       	add	r25, r24
    18a0:	84 e0       	ldi	r24, 0x04	; 4
    18a2:	00 0f       	add	r16, r16
    18a4:	11 1f       	adc	r17, r17
    18a6:	22 1f       	adc	r18, r18
    18a8:	33 1f       	adc	r19, r19
    18aa:	8a 95       	dec	r24
    18ac:	d1 f7       	brne	.-12     	; 0x18a2 <__scan_x+0x114>
    18ae:	09 0f       	add	r16, r25
    18b0:	11 1d       	adc	r17, r1
    18b2:	21 1d       	adc	r18, r1
    18b4:	31 1d       	adc	r19, r1
    18b6:	ae 17       	cp	r26, r30
    18b8:	bf 07       	cpc	r27, r31
    18ba:	51 f7       	brne	.-44     	; 0x1890 <__scan_x+0x102>
    18bc:	eb 81       	ldd	r30, Y+3	; 0x03
    18be:	fc 81       	ldd	r31, Y+4	; 0x04
    18c0:	00 83       	st	Z, r16
    18c2:	11 83       	std	Z+1, r17	; 0x01
    18c4:	22 83       	std	Z+2, r18	; 0x02
    18c6:	33 83       	std	Z+3, r19	; 0x03
    18c8:	14 82       	std	Z+4, r1	; 0x04
    18ca:	15 82       	std	Z+5, r1	; 0x05
    18cc:	16 82       	std	Z+6, r1	; 0x06
    18ce:	17 82       	std	Z+7, r1	; 0x07
    18d0:	80 e0       	ldi	r24, 0x00	; 0
    18d2:	90 e0       	ldi	r25, 0x00	; 0
    18d4:	24 96       	adiw	r28, 0x04	; 4
    18d6:	e2 e1       	ldi	r30, 0x12	; 18
    18d8:	0c 94 69 17 	jmp	0x2ed2	; 0x2ed2 <__epilogue_restores__>

Disassembly of section .text.__skipws:

00002d52 <__skipws>:
    2d52:	0f 93       	push	r16
    2d54:	1f 93       	push	r17
    2d56:	cf 93       	push	r28
    2d58:	df 93       	push	r29
    2d5a:	8c 01       	movw	r16, r24
    2d5c:	c0 e0       	ldi	r28, 0x00	; 0
    2d5e:	d0 e0       	ldi	r29, 0x00	; 0
    2d60:	c8 01       	movw	r24, r16
    2d62:	0e 94 29 11 	call	0x2252	; 0x2252 <fgetc>
    2d66:	8f 3f       	cpi	r24, 0xFF	; 255
    2d68:	2f ef       	ldi	r18, 0xFF	; 255
    2d6a:	92 07       	cpc	r25, r18
    2d6c:	79 f0       	breq	.+30     	; 0x2d8c <__skipws+0x3a>
    2d6e:	80 32       	cpi	r24, 0x20	; 32
    2d70:	91 05       	cpc	r25, r1
    2d72:	51 f0       	breq	.+20     	; 0x2d88 <__skipws+0x36>
    2d74:	9c 01       	movw	r18, r24
    2d76:	29 50       	subi	r18, 0x09	; 9
    2d78:	31 09       	sbc	r19, r1
    2d7a:	25 30       	cpi	r18, 0x05	; 5
    2d7c:	31 05       	cpc	r19, r1
    2d7e:	20 f0       	brcs	.+8      	; 0x2d88 <__skipws+0x36>
    2d80:	b8 01       	movw	r22, r16
    2d82:	0e 94 2e 17 	call	0x2e5c	; 0x2e5c <ungetc>
    2d86:	02 c0       	rjmp	.+4      	; 0x2d8c <__skipws+0x3a>
    2d88:	21 96       	adiw	r28, 0x01	; 1
    2d8a:	ea cf       	rjmp	.-44     	; 0x2d60 <__skipws+0xe>
    2d8c:	ce 01       	movw	r24, r28
    2d8e:	df 91       	pop	r29
    2d90:	cf 91       	pop	r28
    2d92:	1f 91       	pop	r17
    2d94:	0f 91       	pop	r16
    2d96:	08 95       	ret

Disassembly of section .text.__consumews:

00002aba <__consumews>:
    2aba:	cf 93       	push	r28
    2abc:	df 93       	push	r29
    2abe:	eb 01       	movw	r28, r22
    2ac0:	48 81       	ld	r20, Y
    2ac2:	29 81       	ldd	r18, Y+1	; 0x01
    2ac4:	3a 81       	ldd	r19, Y+2	; 0x02
    2ac6:	e4 2f       	mov	r30, r20
    2ac8:	f2 2f       	mov	r31, r18
    2aca:	24 91       	lpm	r18, Z
    2acc:	37 fd       	sbrc	r19, 7
    2ace:	20 81       	ld	r18, Z
    2ad0:	20 32       	cpi	r18, 0x20	; 32
    2ad2:	59 f0       	breq	.+22     	; 0x2aea <__consumews+0x30>
    2ad4:	02 2e       	mov	r0, r18
    2ad6:	00 0c       	add	r0, r0
    2ad8:	33 0b       	sbc	r19, r19
    2ada:	29 50       	subi	r18, 0x09	; 9
    2adc:	31 09       	sbc	r19, r1
    2ade:	25 30       	cpi	r18, 0x05	; 5
    2ae0:	31 05       	cpc	r19, r1
    2ae2:	18 f0       	brcs	.+6      	; 0x2aea <__consumews+0x30>
    2ae4:	80 e0       	ldi	r24, 0x00	; 0
    2ae6:	90 e0       	ldi	r25, 0x00	; 0
    2ae8:	19 c0       	rjmp	.+50     	; 0x2b1c <__consumews+0x62>
    2aea:	0e 94 a9 16 	call	0x2d52	; 0x2d52 <__skipws>
    2aee:	28 81       	ld	r18, Y
    2af0:	39 81       	ldd	r19, Y+1	; 0x01
    2af2:	4a 81       	ldd	r20, Y+2	; 0x02
    2af4:	2f 5f       	subi	r18, 0xFF	; 255
    2af6:	3f 4f       	sbci	r19, 0xFF	; 255
    2af8:	4f 4f       	sbci	r20, 0xFF	; 255
    2afa:	28 83       	st	Y, r18
    2afc:	39 83       	std	Y+1, r19	; 0x01
    2afe:	4a 83       	std	Y+2, r20	; 0x02
    2b00:	f9 01       	movw	r30, r18
    2b02:	24 91       	lpm	r18, Z
    2b04:	47 fd       	sbrc	r20, 7
    2b06:	20 81       	ld	r18, Z
    2b08:	20 32       	cpi	r18, 0x20	; 32
    2b0a:	89 f3       	breq	.-30     	; 0x2aee <__consumews+0x34>
    2b0c:	02 2e       	mov	r0, r18
    2b0e:	00 0c       	add	r0, r0
    2b10:	33 0b       	sbc	r19, r19
    2b12:	29 50       	subi	r18, 0x09	; 9
    2b14:	31 09       	sbc	r19, r1
    2b16:	25 30       	cpi	r18, 0x05	; 5
    2b18:	31 05       	cpc	r19, r1
    2b1a:	48 f3       	brcs	.-46     	; 0x2aee <__consumews+0x34>
    2b1c:	df 91       	pop	r29
    2b1e:	cf 91       	pop	r28
    2b20:	08 95       	ret

Disassembly of section .text.__dummy_scan:

00003246 <__scan_a>:
    3246:	80 e0       	ldi	r24, 0x00	; 0
    3248:	90 e0       	ldi	r25, 0x00	; 0
    324a:	08 95       	ret

Disassembly of section .text.__scanf_core:

000001e0 <__scanf_core>:
 1e0:	a0 e9       	ldi	r26, 0x90	; 144
 1e2:	b1 e0       	ldi	r27, 0x01	; 1
 1e4:	e6 ef       	ldi	r30, 0xF6	; 246
 1e6:	f0 e0       	ldi	r31, 0x00	; 0
 1e8:	0c 94 4d 17 	jmp	0x2e9a	; 0x2e9a <__prologue_saves__>
 1ec:	7c 01       	movw	r14, r24
 1ee:	69 01       	movw	r12, r18
 1f0:	49 83       	std	Y+1, r20	; 0x01
 1f2:	5a 83       	std	Y+2, r21	; 0x02
 1f4:	6b 83       	std	Y+3, r22	; 0x03
 1f6:	1d 82       	std	Y+5, r1	; 0x05
 1f8:	1c 82       	std	Y+4, r1	; 0x04
 1fa:	61 2c       	mov	r6, r1
 1fc:	71 2c       	mov	r7, r1
 1fe:	4e 01       	movw	r8, r28
 200:	26 e0       	ldi	r18, 0x06	; 6
 202:	82 0e       	add	r8, r18
 204:	91 1c       	adc	r9, r1
 206:	29 81       	ldd	r18, Y+1	; 0x01
 208:	9a 81       	ldd	r25, Y+2	; 0x02
 20a:	8b 81       	ldd	r24, Y+3	; 0x03
 20c:	e2 2f       	mov	r30, r18
 20e:	f9 2f       	mov	r31, r25
 210:	94 91       	lpm	r25, Z
 212:	87 fd       	sbrc	r24, 7
 214:	90 81       	ld	r25, Z
 216:	99 23       	and	r25, r25
 218:	09 f4       	brne	.+2      	; 0x21c <__scanf_core+0x3c>
 21a:	20 c3       	rjmp	.+1600   	; 0x85c <__DATA_REGION_LENGTH__+0x5c>
 21c:	8a e0       	ldi	r24, 0x0A	; 10
 21e:	d4 01       	movw	r26, r8
 220:	1d 92       	st	X+, r1
 222:	8a 95       	dec	r24
 224:	e9 f7       	brne	.-6      	; 0x220 <__scanf_core+0x40>
 226:	e1 e1       	ldi	r30, 0x11	; 17
 228:	f1 e0       	ldi	r31, 0x01	; 1
 22a:	ec 0f       	add	r30, r28
 22c:	fd 1f       	adc	r31, r29
 22e:	fd 87       	std	Y+13, r31	; 0x0d
 230:	ec 87       	std	Y+12, r30	; 0x0c
 232:	80 e8       	ldi	r24, 0x80	; 128
 234:	90 e0       	ldi	r25, 0x00	; 0
 236:	9f 87       	std	Y+15, r25	; 0x0f
 238:	8e 87       	std	Y+14, r24	; 0x0e
 23a:	be 01       	movw	r22, r28
 23c:	6f 5f       	subi	r22, 0xFF	; 255
 23e:	7f 4f       	sbci	r23, 0xFF	; 255
 240:	c7 01       	movw	r24, r14
 242:	0e 94 5d 15 	call	0x2aba	; 0x2aba <__consumews>
 246:	8c 01       	movw	r16, r24
 248:	89 81       	ldd	r24, Y+1	; 0x01
 24a:	9a 81       	ldd	r25, Y+2	; 0x02
 24c:	ab 81       	ldd	r26, Y+3	; 0x03
 24e:	fc 01       	movw	r30, r24
 250:	24 91       	lpm	r18, Z
 252:	a7 fd       	sbrc	r26, 7
 254:	20 81       	ld	r18, Z
 256:	21 11       	cpse	r18, r1
 258:	0e c0       	rjmp	.+28     	; 0x276 <__scanf_core+0x96>
 25a:	2c 81       	ldd	r18, Y+4	; 0x04
 25c:	3d 81       	ldd	r19, Y+5	; 0x05
 25e:	02 0f       	add	r16, r18
 260:	13 1f       	adc	r17, r19
 262:	1d 83       	std	Y+5, r17	; 0x05
 264:	0c 83       	std	Y+4, r16	; 0x04
 266:	fc 01       	movw	r30, r24
 268:	24 91       	lpm	r18, Z
 26a:	a7 fd       	sbrc	r26, 7
 26c:	20 81       	ld	r18, Z
 26e:	25 32       	cpi	r18, 0x25	; 37
 270:	09 f0       	breq	.+2      	; 0x274 <__scanf_core+0x94>
 272:	dd c2       	rjmp	.+1466   	; 0x82e <__DATA_REGION_LENGTH__+0x2e>
 274:	32 c0       	rjmp	.+100    	; 0x2da <__scanf_core+0xfa>
 276:	25 32       	cpi	r18, 0x25	; 37
 278:	81 f3       	breq	.-32     	; 0x25a <__scanf_core+0x7a>
 27a:	c7 01       	movw	r24, r14
 27c:	0e 94 29 11 	call	0x2252	; 0x2252 <fgetc>
 280:	5c 01       	movw	r10, r24
 282:	89 81       	ldd	r24, Y+1	; 0x01
 284:	9a 81       	ldd	r25, Y+2	; 0x02
 286:	ab 81       	ldd	r26, Y+3	; 0x03
 288:	bf ef       	ldi	r27, 0xFF	; 255
 28a:	ab 16       	cp	r10, r27
 28c:	bb 06       	cpc	r11, r27
 28e:	89 f0       	breq	.+34     	; 0x2b2 <__scanf_core+0xd2>
 290:	fc 01       	movw	r30, r24
 292:	24 91       	lpm	r18, Z
 294:	a7 fd       	sbrc	r26, 7
 296:	20 81       	ld	r18, Z
 298:	02 2e       	mov	r0, r18
 29a:	00 0c       	add	r0, r0
 29c:	33 0b       	sbc	r19, r19
 29e:	a2 16       	cp	r10, r18
 2a0:	b3 06       	cpc	r11, r19
 2a2:	39 f0       	breq	.+14     	; 0x2b2 <__scanf_core+0xd2>
 2a4:	b7 01       	movw	r22, r14
 2a6:	c5 01       	movw	r24, r10
 2a8:	0e 94 2e 17 	call	0x2e5c	; 0x2e5c <ungetc>
 2ac:	8e ef       	ldi	r24, 0xFE	; 254
 2ae:	9f ef       	ldi	r25, 0xFF	; 255
 2b0:	c9 c2       	rjmp	.+1426   	; 0x844 <__DATA_REGION_LENGTH__+0x44>
 2b2:	2c 81       	ldd	r18, Y+4	; 0x04
 2b4:	3d 81       	ldd	r19, Y+5	; 0x05
 2b6:	2f 5f       	subi	r18, 0xFF	; 255
 2b8:	3f 4f       	sbci	r19, 0xFF	; 255
 2ba:	3d 83       	std	Y+5, r19	; 0x05
 2bc:	2c 83       	std	Y+4, r18	; 0x04
 2be:	01 96       	adiw	r24, 0x01	; 1
 2c0:	a1 1d       	adc	r26, r1
 2c2:	89 83       	std	Y+1, r24	; 0x01
 2c4:	9a 83       	std	Y+2, r25	; 0x02
 2c6:	ab 83       	std	Y+3, r26	; 0x03
 2c8:	be 01       	movw	r22, r28
 2ca:	6f 5f       	subi	r22, 0xFF	; 255
 2cc:	7f 4f       	sbci	r23, 0xFF	; 255
 2ce:	c7 01       	movw	r24, r14
 2d0:	0e 94 5d 15 	call	0x2aba	; 0x2aba <__consumews>
 2d4:	08 0f       	add	r16, r24
 2d6:	19 1f       	adc	r17, r25
 2d8:	b7 cf       	rjmp	.-146    	; 0x248 <__scanf_core+0x68>
 2da:	9c 01       	movw	r18, r24
 2dc:	4a 2f       	mov	r20, r26
 2de:	2f 5f       	subi	r18, 0xFF	; 255
 2e0:	3f 4f       	sbci	r19, 0xFF	; 255
 2e2:	4f 4f       	sbci	r20, 0xFF	; 255
 2e4:	29 83       	std	Y+1, r18	; 0x01
 2e6:	3a 83       	std	Y+2, r19	; 0x02
 2e8:	4b 83       	std	Y+3, r20	; 0x03
 2ea:	1b 86       	std	Y+11, r1	; 0x0b
 2ec:	1a 86       	std	Y+10, r1	; 0x0a
 2ee:	f9 01       	movw	r30, r18
 2f0:	24 91       	lpm	r18, Z
 2f2:	47 fd       	sbrc	r20, 7
 2f4:	20 81       	ld	r18, Z
 2f6:	2a 32       	cpi	r18, 0x2A	; 42
 2f8:	41 f4       	brne	.+16     	; 0x30a <__scanf_core+0x12a>
 2fa:	02 96       	adiw	r24, 0x02	; 2
 2fc:	a1 1d       	adc	r26, r1
 2fe:	89 83       	std	Y+1, r24	; 0x01
 300:	9a 83       	std	Y+2, r25	; 0x02
 302:	ab 83       	std	Y+3, r26	; 0x03
 304:	01 e0       	ldi	r16, 0x01	; 1
 306:	10 e0       	ldi	r17, 0x00	; 0
 308:	02 c0       	rjmp	.+4      	; 0x30e <__scanf_core+0x12e>
 30a:	00 e0       	ldi	r16, 0x00	; 0
 30c:	10 e0       	ldi	r17, 0x00	; 0
 30e:	69 81       	ldd	r22, Y+1	; 0x01
 310:	7a 81       	ldd	r23, Y+2	; 0x02
 312:	8b 81       	ldd	r24, Y+3	; 0x03
 314:	0e 94 42 13 	call	0x2684	; 0x2684 <atoi>
 318:	9b 87       	std	Y+11, r25	; 0x0b
 31a:	8a 87       	std	Y+10, r24	; 0x0a
 31c:	29 81       	ldd	r18, Y+1	; 0x01
 31e:	3a 81       	ldd	r19, Y+2	; 0x02
 320:	4b 81       	ldd	r20, Y+3	; 0x03
 322:	f9 01       	movw	r30, r18
 324:	84 91       	lpm	r24, Z
 326:	47 fd       	sbrc	r20, 7
 328:	80 81       	ld	r24, Z
 32a:	08 2e       	mov	r0, r24
 32c:	00 0c       	add	r0, r0
 32e:	99 0b       	sbc	r25, r25
 330:	c0 97       	sbiw	r24, 0x30	; 48
 332:	0a 97       	sbiw	r24, 0x0a	; 10
 334:	38 f4       	brcc	.+14     	; 0x344 <__scanf_core+0x164>
 336:	2f 5f       	subi	r18, 0xFF	; 255
 338:	3f 4f       	sbci	r19, 0xFF	; 255
 33a:	4f 4f       	sbci	r20, 0xFF	; 255
 33c:	29 83       	std	Y+1, r18	; 0x01
 33e:	3a 83       	std	Y+2, r19	; 0x02
 340:	4b 83       	std	Y+3, r20	; 0x03
 342:	ec cf       	rjmp	.-40     	; 0x31c <__scanf_core+0x13c>
 344:	ce 01       	movw	r24, r28
 346:	01 96       	adiw	r24, 0x01	; 1
 348:	0e 94 ca 11 	call	0x2394	; 0x2394 <__fmt_state>
 34c:	58 2e       	mov	r5, r24
 34e:	29 81       	ldd	r18, Y+1	; 0x01
 350:	8a 81       	ldd	r24, Y+2	; 0x02
 352:	9b 81       	ldd	r25, Y+3	; 0x03
 354:	e2 2f       	mov	r30, r18
 356:	f8 2f       	mov	r31, r24
 358:	84 91       	lpm	r24, Z
 35a:	97 fd       	sbrc	r25, 7
 35c:	80 81       	ld	r24, Z
 35e:	08 2e       	mov	r0, r24
 360:	00 0c       	add	r0, r0
 362:	99 0b       	sbc	r25, r25
 364:	0e 94 0b 19 	call	0x3216	; 0x3216 <tolower>
 368:	88 36       	cpi	r24, 0x68	; 104
 36a:	91 05       	cpc	r25, r1
 36c:	44 f5       	brge	.+80     	; 0x3be <__scanf_core+0x1de>
 36e:	85 36       	cpi	r24, 0x65	; 101
 370:	91 05       	cpc	r25, r1
 372:	0c f0       	brlt	.+2      	; 0x376 <__scanf_core+0x196>
 374:	d5 c0       	rjmp	.+426    	; 0x520 <__BOOTROW_REGION_LENGTH__+0x120>
 376:	81 36       	cpi	r24, 0x61	; 97
 378:	91 05       	cpc	r25, r1
 37a:	09 f4       	brne	.+2      	; 0x37e <__scanf_core+0x19e>
 37c:	d1 c0       	rjmp	.+418    	; 0x520 <__BOOTROW_REGION_LENGTH__+0x120>
 37e:	64 f4       	brge	.+24     	; 0x398 <__scanf_core+0x1b8>
 380:	29 81       	ldd	r18, Y+1	; 0x01
 382:	3a 81       	ldd	r19, Y+2	; 0x02
 384:	4b 81       	ldd	r20, Y+3	; 0x03
 386:	85 32       	cpi	r24, 0x25	; 37
 388:	91 05       	cpc	r25, r1
 38a:	09 f4       	brne	.+2      	; 0x38e <__scanf_core+0x1ae>
 38c:	34 c1       	rjmp	.+616    	; 0x5f6 <__BOOTROW_REGION_LENGTH__+0x1f6>
 38e:	8b 35       	cpi	r24, 0x5B	; 91
 390:	91 05       	cpc	r25, r1
 392:	09 f4       	brne	.+2      	; 0x396 <__scanf_core+0x1b6>
 394:	49 c1       	rjmp	.+658    	; 0x628 <__BOOTROW_REGION_LENGTH__+0x228>
 396:	43 c2       	rjmp	.+1158   	; 0x81e <__DATA_REGION_LENGTH__+0x1e>
 398:	83 36       	cpi	r24, 0x63	; 99
 39a:	91 05       	cpc	r25, r1
 39c:	09 f4       	brne	.+2      	; 0x3a0 <__scanf_core+0x1c0>
 39e:	df c0       	rjmp	.+446    	; 0x55e <__BOOTROW_REGION_LENGTH__+0x15e>
 3a0:	84 36       	cpi	r24, 0x64	; 100
 3a2:	91 05       	cpc	r25, r1
 3a4:	09 f0       	breq	.+2      	; 0x3a8 <__scanf_core+0x1c8>
 3a6:	3b c2       	rjmp	.+1142   	; 0x81e <__DATA_REGION_LENGTH__+0x1e>
 3a8:	9e 01       	movw	r18, r28
 3aa:	2c 5f       	subi	r18, 0xFC	; 252
 3ac:	3f 4f       	sbci	r19, 0xFF	; 255
 3ae:	a4 01       	movw	r20, r8
 3b0:	be 01       	movw	r22, r28
 3b2:	60 5f       	subi	r22, 0xF0	; 240
 3b4:	7f 4f       	sbci	r23, 0xFF	; 255
 3b6:	c7 01       	movw	r24, r14
 3b8:	0e 94 ef 15 	call	0x2bde	; 0x2bde <__scan_d>
 3bc:	24 c0       	rjmp	.+72     	; 0x406 <__BOOTROW_REGION_LENGTH__+0x6>
 3be:	80 37       	cpi	r24, 0x70	; 112
 3c0:	91 05       	cpc	r25, r1
 3c2:	09 f4       	brne	.+2      	; 0x3c6 <__scanf_core+0x1e6>
 3c4:	68 c0       	rjmp	.+208    	; 0x496 <__BOOTROW_REGION_LENGTH__+0x96>
 3c6:	a4 f4       	brge	.+40     	; 0x3f0 <__scanf_core+0x210>
 3c8:	8e 36       	cpi	r24, 0x6E	; 110
 3ca:	91 05       	cpc	r25, r1
 3cc:	09 f4       	brne	.+2      	; 0x3d0 <__scanf_core+0x1f0>
 3ce:	84 c0       	rjmp	.+264    	; 0x4d8 <__BOOTROW_REGION_LENGTH__+0xd8>
 3d0:	cc f5       	brge	.+114    	; 0x444 <__BOOTROW_REGION_LENGTH__+0x44>
 3d2:	89 36       	cpi	r24, 0x69	; 105
 3d4:	91 05       	cpc	r25, r1
 3d6:	09 f0       	breq	.+2      	; 0x3da <__scanf_core+0x1fa>
 3d8:	22 c2       	rjmp	.+1092   	; 0x81e <__DATA_REGION_LENGTH__+0x1e>
 3da:	9e 01       	movw	r18, r28
 3dc:	2c 5f       	subi	r18, 0xFC	; 252
 3de:	3f 4f       	sbci	r19, 0xFF	; 255
 3e0:	a4 01       	movw	r20, r8
 3e2:	be 01       	movw	r22, r28
 3e4:	60 5f       	subi	r22, 0xF0	; 240
 3e6:	7f 4f       	sbci	r23, 0xFF	; 255
 3e8:	c7 01       	movw	r24, r14
 3ea:	0e 94 e7 09 	call	0x13ce	; 0x13ce <__scan_i>
 3ee:	0b c0       	rjmp	.+22     	; 0x406 <__BOOTROW_REGION_LENGTH__+0x6>
 3f0:	85 37       	cpi	r24, 0x75	; 117
 3f2:	91 05       	cpc	r25, r1
 3f4:	e1 f0       	breq	.+56     	; 0x42e <__BOOTROW_REGION_LENGTH__+0x2e>
 3f6:	88 37       	cpi	r24, 0x78	; 120
 3f8:	91 05       	cpc	r25, r1
 3fa:	79 f1       	breq	.+94     	; 0x45a <__BOOTROW_REGION_LENGTH__+0x5a>
 3fc:	83 37       	cpi	r24, 0x73	; 115
 3fe:	91 05       	cpc	r25, r1
 400:	09 f0       	breq	.+2      	; 0x404 <__BOOTROW_REGION_LENGTH__+0x4>
 402:	0d c2       	rjmp	.+1050   	; 0x81e <__DATA_REGION_LENGTH__+0x1e>
 404:	d4 c0       	rjmp	.+424    	; 0x5ae <__BOOTROW_REGION_LENGTH__+0x1ae>
 406:	97 fd       	sbrc	r25, 7
 408:	1d c2       	rjmp	.+1082   	; 0x844 <__DATA_REGION_LENGTH__+0x44>
 40a:	89 81       	ldd	r24, Y+1	; 0x01
 40c:	9a 81       	ldd	r25, Y+2	; 0x02
 40e:	ab 81       	ldd	r26, Y+3	; 0x03
 410:	01 96       	adiw	r24, 0x01	; 1
 412:	a1 1d       	adc	r26, r1
 414:	89 83       	std	Y+1, r24	; 0x01
 416:	9a 83       	std	Y+2, r25	; 0x02
 418:	ab 83       	std	Y+3, r26	; 0x03
 41a:	01 15       	cp	r16, r1
 41c:	11 05       	cpc	r17, r1
 41e:	09 f0       	breq	.+2      	; 0x422 <__BOOTROW_REGION_LENGTH__+0x22>
 420:	7c c0       	rjmp	.+248    	; 0x51a <__BOOTROW_REGION_LENGTH__+0x11a>
 422:	65 2d       	mov	r22, r5
 424:	70 e0       	ldi	r23, 0x00	; 0
 426:	96 01       	movw	r18, r12
 428:	41 e0       	ldi	r20, 0x01	; 1
 42a:	50 e0       	ldi	r21, 0x00	; 0
 42c:	50 c0       	rjmp	.+160    	; 0x4ce <__BOOTROW_REGION_LENGTH__+0xce>
 42e:	9e 01       	movw	r18, r28
 430:	2c 5f       	subi	r18, 0xFC	; 252
 432:	3f 4f       	sbci	r19, 0xFF	; 255
 434:	a4 01       	movw	r20, r8
 436:	be 01       	movw	r22, r28
 438:	60 5f       	subi	r22, 0xF0	; 240
 43a:	7f 4f       	sbci	r23, 0xFF	; 255
 43c:	c7 01       	movw	r24, r14
 43e:	0e 94 16 16 	call	0x2c2c	; 0x2c2c <__scan_u>
 442:	15 c0       	rjmp	.+42     	; 0x46e <__BOOTROW_REGION_LENGTH__+0x6e>
 444:	9e 01       	movw	r18, r28
 446:	2c 5f       	subi	r18, 0xFC	; 252
 448:	3f 4f       	sbci	r19, 0xFF	; 255
 44a:	a4 01       	movw	r20, r8
 44c:	be 01       	movw	r22, r28
 44e:	60 5f       	subi	r22, 0xF0	; 240
 450:	7f 4f       	sbci	r23, 0xFF	; 255
 452:	c7 01       	movw	r24, r14
 454:	0e 94 78 0e 	call	0x1cf0	; 0x1cf0 <__scan_o>
 458:	0a c0       	rjmp	.+20     	; 0x46e <__BOOTROW_REGION_LENGTH__+0x6e>
 45a:	9e 01       	movw	r18, r28
 45c:	2c 5f       	subi	r18, 0xFC	; 252
 45e:	3f 4f       	sbci	r19, 0xFF	; 255
 460:	a4 01       	movw	r20, r8
 462:	be 01       	movw	r22, r28
 464:	60 5f       	subi	r22, 0xF0	; 240
 466:	7f 4f       	sbci	r23, 0xFF	; 255
 468:	c7 01       	movw	r24, r14
 46a:	0e 94 c7 0b 	call	0x178e	; 0x178e <__scan_x>
 46e:	97 fd       	sbrc	r25, 7
 470:	e9 c1       	rjmp	.+978    	; 0x844 <__DATA_REGION_LENGTH__+0x44>
 472:	89 81       	ldd	r24, Y+1	; 0x01
 474:	9a 81       	ldd	r25, Y+2	; 0x02
 476:	ab 81       	ldd	r26, Y+3	; 0x03
 478:	01 96       	adiw	r24, 0x01	; 1
 47a:	a1 1d       	adc	r26, r1
 47c:	89 83       	std	Y+1, r24	; 0x01
 47e:	9a 83       	std	Y+2, r25	; 0x02
 480:	ab 83       	std	Y+3, r26	; 0x03
 482:	01 15       	cp	r16, r1
 484:	11 05       	cpc	r17, r1
 486:	09 f0       	breq	.+2      	; 0x48a <__BOOTROW_REGION_LENGTH__+0x8a>
 488:	48 c0       	rjmp	.+144    	; 0x51a <__BOOTROW_REGION_LENGTH__+0x11a>
 48a:	65 2d       	mov	r22, r5
 48c:	70 e0       	ldi	r23, 0x00	; 0
 48e:	96 01       	movw	r18, r12
 490:	40 e0       	ldi	r20, 0x00	; 0
 492:	50 e0       	ldi	r21, 0x00	; 0
 494:	1c c0       	rjmp	.+56     	; 0x4ce <__BOOTROW_REGION_LENGTH__+0xce>
 496:	9e 01       	movw	r18, r28
 498:	2c 5f       	subi	r18, 0xFC	; 252
 49a:	3f 4f       	sbci	r19, 0xFF	; 255
 49c:	a4 01       	movw	r20, r8
 49e:	be 01       	movw	r22, r28
 4a0:	60 5f       	subi	r22, 0xF0	; 240
 4a2:	7f 4f       	sbci	r23, 0xFF	; 255
 4a4:	c7 01       	movw	r24, r14
 4a6:	0e 94 c7 0b 	call	0x178e	; 0x178e <__scan_x>
 4aa:	97 fd       	sbrc	r25, 7
 4ac:	cb c1       	rjmp	.+918    	; 0x844 <__DATA_REGION_LENGTH__+0x44>
 4ae:	89 81       	ldd	r24, Y+1	; 0x01
 4b0:	9a 81       	ldd	r25, Y+2	; 0x02
 4b2:	ab 81       	ldd	r26, Y+3	; 0x03
 4b4:	01 96       	adiw	r24, 0x01	; 1
 4b6:	a1 1d       	adc	r26, r1
 4b8:	89 83       	std	Y+1, r24	; 0x01
 4ba:	9a 83       	std	Y+2, r25	; 0x02
 4bc:	ab 83       	std	Y+3, r26	; 0x03
 4be:	01 15       	cp	r16, r1
 4c0:	11 05       	cpc	r17, r1
 4c2:	59 f5       	brne	.+86     	; 0x51a <__BOOTROW_REGION_LENGTH__+0x11a>
 4c4:	96 01       	movw	r18, r12
 4c6:	40 e0       	ldi	r20, 0x00	; 0
 4c8:	50 e0       	ldi	r21, 0x00	; 0
 4ca:	60 ef       	ldi	r22, 0xF0	; 240
 4cc:	70 e0       	ldi	r23, 0x00	; 0
 4ce:	ce 01       	movw	r24, r28
 4d0:	40 96       	adiw	r24, 0x10	; 16
 4d2:	0e 94 6e 0c 	call	0x18dc	; 0x18dc <__push_int>
 4d6:	b6 c1       	rjmp	.+876    	; 0x844 <__DATA_REGION_LENGTH__+0x44>
 4d8:	89 81       	ldd	r24, Y+1	; 0x01
 4da:	9a 81       	ldd	r25, Y+2	; 0x02
 4dc:	ab 81       	ldd	r26, Y+3	; 0x03
 4de:	01 96       	adiw	r24, 0x01	; 1
 4e0:	a1 1d       	adc	r26, r1
 4e2:	89 83       	std	Y+1, r24	; 0x01
 4e4:	9a 83       	std	Y+2, r25	; 0x02
 4e6:	ab 83       	std	Y+3, r26	; 0x03
 4e8:	9d 81       	ldd	r25, Y+5	; 0x05
 4ea:	2c 81       	ldd	r18, Y+4	; 0x04
 4ec:	89 2f       	mov	r24, r25
 4ee:	88 0f       	add	r24, r24
 4f0:	88 0b       	sbc	r24, r24
 4f2:	28 8b       	std	Y+16, r18	; 0x10
 4f4:	99 8b       	std	Y+17, r25	; 0x11
 4f6:	8a 8b       	std	Y+18, r24	; 0x12
 4f8:	8b 8b       	std	Y+19, r24	; 0x13
 4fa:	8c 8b       	std	Y+20, r24	; 0x14
 4fc:	8d 8b       	std	Y+21, r24	; 0x15
 4fe:	8e 8b       	std	Y+22, r24	; 0x16
 500:	8f 8b       	std	Y+23, r24	; 0x17
 502:	01 15       	cp	r16, r1
 504:	11 05       	cpc	r17, r1
 506:	49 f4       	brne	.+18     	; 0x51a <__BOOTROW_REGION_LENGTH__+0x11a>
 508:	65 2d       	mov	r22, r5
 50a:	70 e0       	ldi	r23, 0x00	; 0
 50c:	96 01       	movw	r18, r12
 50e:	40 e0       	ldi	r20, 0x00	; 0
 510:	50 e0       	ldi	r21, 0x00	; 0
 512:	ce 01       	movw	r24, r28
 514:	40 96       	adiw	r24, 0x10	; 16
 516:	0e 94 6e 0c 	call	0x18dc	; 0x18dc <__push_int>
 51a:	80 e0       	ldi	r24, 0x00	; 0
 51c:	90 e0       	ldi	r25, 0x00	; 0
 51e:	92 c1       	rjmp	.+804    	; 0x844 <__DATA_REGION_LENGTH__+0x44>
 520:	9e 01       	movw	r18, r28
 522:	2c 5f       	subi	r18, 0xFC	; 252
 524:	3f 4f       	sbci	r19, 0xFF	; 255
 526:	a4 01       	movw	r20, r8
 528:	be 01       	movw	r22, r28
 52a:	60 5f       	subi	r22, 0xF0	; 240
 52c:	7f 4f       	sbci	r23, 0xFF	; 255
 52e:	c7 01       	movw	r24, r14
 530:	0e 94 23 19 	call	0x3246	; 0x3246 <__scan_a>
 534:	97 fd       	sbrc	r25, 7
 536:	86 c1       	rjmp	.+780    	; 0x844 <__DATA_REGION_LENGTH__+0x44>
 538:	89 81       	ldd	r24, Y+1	; 0x01
 53a:	9a 81       	ldd	r25, Y+2	; 0x02
 53c:	ab 81       	ldd	r26, Y+3	; 0x03
 53e:	01 96       	adiw	r24, 0x01	; 1
 540:	a1 1d       	adc	r26, r1
 542:	89 83       	std	Y+1, r24	; 0x01
 544:	9a 83       	std	Y+2, r25	; 0x02
 546:	ab 83       	std	Y+3, r26	; 0x03
 548:	01 15       	cp	r16, r1
 54a:	11 05       	cpc	r17, r1
 54c:	31 f7       	brne	.-52     	; 0x51a <__BOOTROW_REGION_LENGTH__+0x11a>
 54e:	65 2d       	mov	r22, r5
 550:	70 e0       	ldi	r23, 0x00	; 0
 552:	a6 01       	movw	r20, r12
 554:	ce 01       	movw	r24, r28
 556:	40 96       	adiw	r24, 0x10	; 16
 558:	0e 94 f4 14 	call	0x29e8	; 0x29e8 <__push_float>
 55c:	73 c1       	rjmp	.+742    	; 0x844 <__DATA_REGION_LENGTH__+0x44>
 55e:	e0 e8       	ldi	r30, 0x80	; 128
 560:	5e 12       	cpse	r5, r30
 562:	5d c1       	rjmp	.+698    	; 0x81e <__DATA_REGION_LENGTH__+0x1e>
 564:	8a 85       	ldd	r24, Y+10	; 0x0a
 566:	9b 85       	ldd	r25, Y+11	; 0x0b
 568:	89 2b       	or	r24, r25
 56a:	21 f4       	brne	.+8      	; 0x574 <__BOOTROW_REGION_LENGTH__+0x174>
 56c:	81 e0       	ldi	r24, 0x01	; 1
 56e:	90 e0       	ldi	r25, 0x00	; 0
 570:	9b 87       	std	Y+11, r25	; 0x0b
 572:	8a 87       	std	Y+10, r24	; 0x0a
 574:	89 81       	ldd	r24, Y+1	; 0x01
 576:	9a 81       	ldd	r25, Y+2	; 0x02
 578:	ab 81       	ldd	r26, Y+3	; 0x03
 57a:	01 96       	adiw	r24, 0x01	; 1
 57c:	a1 1d       	adc	r26, r1
 57e:	89 83       	std	Y+1, r24	; 0x01
 580:	9a 83       	std	Y+2, r25	; 0x02
 582:	ab 83       	std	Y+3, r26	; 0x03
 584:	01 2b       	or	r16, r17
 586:	59 f4       	brne	.+22     	; 0x59e <__BOOTROW_REGION_LENGTH__+0x19e>
 588:	d6 01       	movw	r26, r12
 58a:	ed 91       	ld	r30, X+
 58c:	fc 91       	ld	r31, X
 58e:	11 97       	sbiw	r26, 0x01	; 1
 590:	cf 01       	movw	r24, r30
 592:	03 96       	adiw	r24, 0x03	; 3
 594:	8d 93       	st	X+, r24
 596:	9c 93       	st	X, r25
 598:	00 81       	ld	r16, Z
 59a:	11 81       	ldd	r17, Z+1	; 0x01
 59c:	02 c0       	rjmp	.+4      	; 0x5a2 <__BOOTROW_REGION_LENGTH__+0x1a2>
 59e:	00 e0       	ldi	r16, 0x00	; 0
 5a0:	10 e0       	ldi	r17, 0x00	; 0
 5a2:	9e 01       	movw	r18, r28
 5a4:	2c 5f       	subi	r18, 0xFC	; 252
 5a6:	3f 4f       	sbci	r19, 0xFF	; 255
 5a8:	40 e0       	ldi	r20, 0x00	; 0
 5aa:	50 e0       	ldi	r21, 0x00	; 0
 5ac:	1f c0       	rjmp	.+62     	; 0x5ec <__BOOTROW_REGION_LENGTH__+0x1ec>
 5ae:	b0 e8       	ldi	r27, 0x80	; 128
 5b0:	5b 12       	cpse	r5, r27
 5b2:	35 c1       	rjmp	.+618    	; 0x81e <__DATA_REGION_LENGTH__+0x1e>
 5b4:	89 81       	ldd	r24, Y+1	; 0x01
 5b6:	9a 81       	ldd	r25, Y+2	; 0x02
 5b8:	ab 81       	ldd	r26, Y+3	; 0x03
 5ba:	01 96       	adiw	r24, 0x01	; 1
 5bc:	a1 1d       	adc	r26, r1
 5be:	89 83       	std	Y+1, r24	; 0x01
 5c0:	9a 83       	std	Y+2, r25	; 0x02
 5c2:	ab 83       	std	Y+3, r26	; 0x03
 5c4:	01 2b       	or	r16, r17
 5c6:	59 f4       	brne	.+22     	; 0x5de <__BOOTROW_REGION_LENGTH__+0x1de>
 5c8:	d6 01       	movw	r26, r12
 5ca:	ed 91       	ld	r30, X+
 5cc:	fc 91       	ld	r31, X
 5ce:	11 97       	sbiw	r26, 0x01	; 1
 5d0:	cf 01       	movw	r24, r30
 5d2:	03 96       	adiw	r24, 0x03	; 3
 5d4:	8d 93       	st	X+, r24
 5d6:	9c 93       	st	X, r25
 5d8:	00 81       	ld	r16, Z
 5da:	11 81       	ldd	r17, Z+1	; 0x01
 5dc:	02 c0       	rjmp	.+4      	; 0x5e2 <__BOOTROW_REGION_LENGTH__+0x1e2>
 5de:	00 e0       	ldi	r16, 0x00	; 0
 5e0:	10 e0       	ldi	r17, 0x00	; 0
 5e2:	9e 01       	movw	r18, r28
 5e4:	2c 5f       	subi	r18, 0xFC	; 252
 5e6:	3f 4f       	sbci	r19, 0xFF	; 255
 5e8:	41 e0       	ldi	r20, 0x01	; 1
 5ea:	50 e0       	ldi	r21, 0x00	; 0
 5ec:	b4 01       	movw	r22, r8
 5ee:	c7 01       	movw	r24, r14
 5f0:	0e 94 4d 0f 	call	0x1e9a	; 0x1e9a <__scan_s>
 5f4:	27 c1       	rjmp	.+590    	; 0x844 <__DATA_REGION_LENGTH__+0x44>
 5f6:	b0 e8       	ldi	r27, 0x80	; 128
 5f8:	5b 12       	cpse	r5, r27
 5fa:	11 c1       	rjmp	.+546    	; 0x81e <__DATA_REGION_LENGTH__+0x1e>
 5fc:	2f 5f       	subi	r18, 0xFF	; 255
 5fe:	3f 4f       	sbci	r19, 0xFF	; 255
 600:	4f 4f       	sbci	r20, 0xFF	; 255
 602:	29 83       	std	Y+1, r18	; 0x01
 604:	3a 83       	std	Y+2, r19	; 0x02
 606:	4b 83       	std	Y+3, r20	; 0x03
 608:	c7 01       	movw	r24, r14
 60a:	0e 94 29 11 	call	0x2252	; 0x2252 <fgetc>
 60e:	85 32       	cpi	r24, 0x25	; 37
 610:	91 05       	cpc	r25, r1
 612:	31 f4       	brne	.+12     	; 0x620 <__BOOTROW_REGION_LENGTH__+0x220>
 614:	8c 81       	ldd	r24, Y+4	; 0x04
 616:	9d 81       	ldd	r25, Y+5	; 0x05
 618:	01 96       	adiw	r24, 0x01	; 1
 61a:	9d 83       	std	Y+5, r25	; 0x05
 61c:	8c 83       	std	Y+4, r24	; 0x04
 61e:	fc c0       	rjmp	.+504    	; 0x818 <__DATA_REGION_LENGTH__+0x18>
 620:	b7 01       	movw	r22, r14
 622:	0e 94 2e 17 	call	0x2e5c	; 0x2e5c <ungetc>
 626:	79 cf       	rjmp	.-270    	; 0x51a <__BOOTROW_REGION_LENGTH__+0x11a>
 628:	e0 e8       	ldi	r30, 0x80	; 128
 62a:	5e 12       	cpse	r5, r30
 62c:	f8 c0       	rjmp	.+496    	; 0x81e <__DATA_REGION_LENGTH__+0x1e>
 62e:	01 2b       	or	r16, r17
 630:	59 f4       	brne	.+22     	; 0x648 <__BOOTROW_REGION_LENGTH__+0x248>
 632:	d6 01       	movw	r26, r12
 634:	ed 91       	ld	r30, X+
 636:	fc 91       	ld	r31, X
 638:	11 97       	sbiw	r26, 0x01	; 1
 63a:	cf 01       	movw	r24, r30
 63c:	03 96       	adiw	r24, 0x03	; 3
 63e:	8d 93       	st	X+, r24
 640:	9c 93       	st	X, r25
 642:	00 81       	ld	r16, Z
 644:	11 81       	ldd	r17, Z+1	; 0x01
 646:	02 c0       	rjmp	.+4      	; 0x64c <__BOOTROW_REGION_LENGTH__+0x24c>
 648:	00 e0       	ldi	r16, 0x00	; 0
 64a:	10 e0       	ldi	r17, 0x00	; 0
 64c:	a4 2f       	mov	r26, r20
 64e:	c9 01       	movw	r24, r18
 650:	01 96       	adiw	r24, 0x01	; 1
 652:	a1 1d       	adc	r26, r1
 654:	89 83       	std	Y+1, r24	; 0x01
 656:	9a 83       	std	Y+2, r25	; 0x02
 658:	ab 83       	std	Y+3, r26	; 0x03
 65a:	fc 01       	movw	r30, r24
 65c:	84 91       	lpm	r24, Z
 65e:	a7 fd       	sbrc	r26, 7
 660:	80 81       	ld	r24, Z
 662:	8e 35       	cpi	r24, 0x5E	; 94
 664:	49 f4       	brne	.+18     	; 0x678 <__BOOTROW_REGION_LENGTH__+0x278>
 666:	2e 5f       	subi	r18, 0xFE	; 254
 668:	3f 4f       	sbci	r19, 0xFF	; 255
 66a:	4f 4f       	sbci	r20, 0xFF	; 255
 66c:	29 83       	std	Y+1, r18	; 0x01
 66e:	3a 83       	std	Y+2, r19	; 0x02
 670:	4b 83       	std	Y+3, r20	; 0x03
 672:	bb 24       	eor	r11, r11
 674:	b3 94       	inc	r11
 676:	01 c0       	rjmp	.+2      	; 0x67a <__BOOTROW_REGION_LENGTH__+0x27a>
 678:	b1 2c       	mov	r11, r1
 67a:	41 e0       	ldi	r20, 0x01	; 1
 67c:	51 e0       	ldi	r21, 0x01	; 1
 67e:	6b 2d       	mov	r22, r11
 680:	70 e0       	ldi	r23, 0x00	; 0
 682:	ce 01       	movw	r24, r28
 684:	40 96       	adiw	r24, 0x10	; 16
 686:	0e 94 d6 18 	call	0x31ac	; 0x31ac <memset>
 68a:	18 8a       	std	Y+16, r1	; 0x10
 68c:	89 81       	ldd	r24, Y+1	; 0x01
 68e:	9a 81       	ldd	r25, Y+2	; 0x02
 690:	ab 81       	ldd	r26, Y+3	; 0x03
 692:	fc 01       	movw	r30, r24
 694:	24 91       	lpm	r18, Z
 696:	a7 fd       	sbrc	r26, 7
 698:	20 81       	ld	r18, Z
 69a:	2d 32       	cpi	r18, 0x2D	; 45
 69c:	59 f4       	brne	.+22     	; 0x6b4 <__BOOTROW_REGION_LENGTH__+0x2b4>
 69e:	01 96       	adiw	r24, 0x01	; 1
 6a0:	a1 1d       	adc	r26, r1
 6a2:	89 83       	std	Y+1, r24	; 0x01
 6a4:	9a 83       	std	Y+2, r25	; 0x02
 6a6:	ab 83       	std	Y+3, r26	; 0x03
 6a8:	81 e0       	ldi	r24, 0x01	; 1
 6aa:	8b 19       	sub	r24, r11
 6ac:	8e af       	std	Y+62, r24	; 0x3e
 6ae:	51 e0       	ldi	r21, 0x01	; 1
 6b0:	5b 19       	sub	r21, r11
 6b2:	27 c0       	rjmp	.+78     	; 0x702 <__BOOTROW_REGION_LENGTH__+0x302>
 6b4:	2d 35       	cpi	r18, 0x5D	; 93
 6b6:	d9 f7       	brne	.-10     	; 0x6ae <__BOOTROW_REGION_LENGTH__+0x2ae>
 6b8:	01 96       	adiw	r24, 0x01	; 1
 6ba:	a1 1d       	adc	r26, r1
 6bc:	89 83       	std	Y+1, r24	; 0x01
 6be:	9a 83       	std	Y+2, r25	; 0x02
 6c0:	ab 83       	std	Y+3, r26	; 0x03
 6c2:	81 e0       	ldi	r24, 0x01	; 1
 6c4:	8b 19       	sub	r24, r11
 6c6:	af 96       	adiw	r28, 0x2f	; 47
 6c8:	8f af       	std	Y+63, r24	; 0x3f
 6ca:	af 97       	sbiw	r28, 0x2f	; 47
 6cc:	f0 cf       	rjmp	.-32     	; 0x6ae <__BOOTROW_REGION_LENGTH__+0x2ae>
 6ce:	88 23       	and	r24, r24
 6d0:	09 f4       	brne	.+2      	; 0x6d4 <__BOOTROW_REGION_LENGTH__+0x2d4>
 6d2:	5a c0       	rjmp	.+180    	; 0x788 <__BOOTROW_REGION_LENGTH__+0x388>
 6d4:	8d 32       	cpi	r24, 0x2D	; 45
 6d6:	f9 f0       	breq	.+62     	; 0x716 <__BOOTROW_REGION_LENGTH__+0x316>
 6d8:	89 81       	ldd	r24, Y+1	; 0x01
 6da:	9a 81       	ldd	r25, Y+2	; 0x02
 6dc:	ab 81       	ldd	r26, Y+3	; 0x03
 6de:	fc 01       	movw	r30, r24
 6e0:	24 91       	lpm	r18, Z
 6e2:	a7 fd       	sbrc	r26, 7
 6e4:	20 81       	ld	r18, Z
 6e6:	e1 e1       	ldi	r30, 0x11	; 17
 6e8:	f0 e0       	ldi	r31, 0x00	; 0
 6ea:	ec 0f       	add	r30, r28
 6ec:	fd 1f       	adc	r31, r29
 6ee:	e2 0f       	add	r30, r18
 6f0:	f1 1d       	adc	r31, r1
 6f2:	27 fd       	sbrc	r18, 7
 6f4:	fa 95       	dec	r31
 6f6:	50 83       	st	Z, r21
 6f8:	01 96       	adiw	r24, 0x01	; 1
 6fa:	a1 1d       	adc	r26, r1
 6fc:	89 83       	std	Y+1, r24	; 0x01
 6fe:	9a 83       	std	Y+2, r25	; 0x02
 700:	ab 83       	std	Y+3, r26	; 0x03
 702:	29 81       	ldd	r18, Y+1	; 0x01
 704:	3a 81       	ldd	r19, Y+2	; 0x02
 706:	4b 81       	ldd	r20, Y+3	; 0x03
 708:	f9 01       	movw	r30, r18
 70a:	84 91       	lpm	r24, Z
 70c:	47 fd       	sbrc	r20, 7
 70e:	80 81       	ld	r24, Z
 710:	8d 35       	cpi	r24, 0x5D	; 93
 712:	e9 f6       	brne	.-70     	; 0x6ce <__BOOTROW_REGION_LENGTH__+0x2ce>
 714:	39 c0       	rjmp	.+114    	; 0x788 <__BOOTROW_REGION_LENGTH__+0x388>
 716:	6c 81       	ldd	r22, Y+4	; 0x04
 718:	9d 81       	ldd	r25, Y+5	; 0x05
 71a:	8e 81       	ldd	r24, Y+6	; 0x06
 71c:	e6 2f       	mov	r30, r22
 71e:	f9 2f       	mov	r31, r25
 720:	94 91       	lpm	r25, Z
 722:	87 fd       	sbrc	r24, 7
 724:	90 81       	ld	r25, Z
 726:	99 23       	and	r25, r25
 728:	b9 f2       	breq	.-82     	; 0x6d8 <__BOOTROW_REGION_LENGTH__+0x2d8>
 72a:	9d 35       	cpi	r25, 0x5D	; 93
 72c:	a9 f2       	breq	.-86     	; 0x6d8 <__BOOTROW_REGION_LENGTH__+0x2d8>
 72e:	2f 5f       	subi	r18, 0xFF	; 255
 730:	3f 4f       	sbci	r19, 0xFF	; 255
 732:	4f 4f       	sbci	r20, 0xFF	; 255
 734:	29 83       	std	Y+1, r18	; 0x01
 736:	3a 83       	std	Y+2, r19	; 0x02
 738:	4b 83       	std	Y+3, r20	; 0x03
 73a:	ee ef       	ldi	r30, 0xFE	; 254
 73c:	ff ef       	ldi	r31, 0xFF	; 255
 73e:	ec 0f       	add	r30, r28
 740:	fd 1f       	adc	r31, r29
 742:	60 81       	ld	r22, Z
 744:	af ef       	ldi	r26, 0xFF	; 255
 746:	bf ef       	ldi	r27, 0xFF	; 255
 748:	ac 0f       	add	r26, r28
 74a:	bd 1f       	adc	r27, r29
 74c:	8c 91       	ld	r24, X
 74e:	98 81       	ld	r25, Y
 750:	e6 2f       	mov	r30, r22
 752:	f8 2f       	mov	r31, r24
 754:	84 91       	lpm	r24, Z
 756:	97 fd       	sbrc	r25, 7
 758:	80 81       	ld	r24, Z
 75a:	08 2e       	mov	r0, r24
 75c:	00 0c       	add	r0, r0
 75e:	99 0b       	sbc	r25, r25
 760:	f9 01       	movw	r30, r18
 762:	64 91       	lpm	r22, Z
 764:	47 fd       	sbrc	r20, 7
 766:	60 81       	ld	r22, Z
 768:	06 2e       	mov	r0, r22
 76a:	00 0c       	add	r0, r0
 76c:	77 0b       	sbc	r23, r23
 76e:	86 17       	cp	r24, r22
 770:	97 07       	cpc	r25, r23
 772:	0c f0       	brlt	.+2      	; 0x776 <__BOOTROW_REGION_LENGTH__+0x376>
 774:	b1 cf       	rjmp	.-158    	; 0x6d8 <__BOOTROW_REGION_LENGTH__+0x2d8>
 776:	01 96       	adiw	r24, 0x01	; 1
 778:	e0 e1       	ldi	r30, 0x10	; 16
 77a:	f0 e0       	ldi	r31, 0x00	; 0
 77c:	ec 0f       	add	r30, r28
 77e:	fd 1f       	adc	r31, r29
 780:	e8 0f       	add	r30, r24
 782:	f9 1f       	adc	r31, r25
 784:	50 83       	st	Z, r21
 786:	ec cf       	rjmp	.-40     	; 0x760 <__BOOTROW_REGION_LENGTH__+0x360>
 788:	01 15       	cp	r16, r1
 78a:	11 05       	cpc	r17, r1
 78c:	d1 f0       	breq	.+52     	; 0x7c2 <__BOOTROW_REGION_LENGTH__+0x3c2>
 78e:	18 01       	movw	r2, r16
 790:	21 01       	movw	r4, r2
 792:	40 1a       	sub	r4, r16
 794:	51 0a       	sbc	r5, r17
 796:	c7 01       	movw	r24, r14
 798:	0e 94 29 11 	call	0x2252	; 0x2252 <fgetc>
 79c:	5c 01       	movw	r10, r24
 79e:	e1 e1       	ldi	r30, 0x11	; 17
 7a0:	f0 e0       	ldi	r31, 0x00	; 0
 7a2:	ec 0f       	add	r30, r28
 7a4:	fd 1f       	adc	r31, r29
 7a6:	e8 0f       	add	r30, r24
 7a8:	f9 1f       	adc	r31, r25
 7aa:	80 81       	ld	r24, Z
 7ac:	88 23       	and	r24, r24
 7ae:	f1 f0       	breq	.+60     	; 0x7ec <__BOOTROW_REGION_LENGTH__+0x3ec>
 7b0:	f1 01       	movw	r30, r2
 7b2:	a1 92       	st	Z+, r10
 7b4:	1f 01       	movw	r2, r30
 7b6:	8c 81       	ldd	r24, Y+4	; 0x04
 7b8:	9d 81       	ldd	r25, Y+5	; 0x05
 7ba:	01 96       	adiw	r24, 0x01	; 1
 7bc:	9d 83       	std	Y+5, r25	; 0x05
 7be:	8c 83       	std	Y+4, r24	; 0x04
 7c0:	e7 cf       	rjmp	.-50     	; 0x790 <__BOOTROW_REGION_LENGTH__+0x390>
 7c2:	c7 01       	movw	r24, r14
 7c4:	0e 94 29 11 	call	0x2252	; 0x2252 <fgetc>
 7c8:	5c 01       	movw	r10, r24
 7ca:	e1 e1       	ldi	r30, 0x11	; 17
 7cc:	f0 e0       	ldi	r31, 0x00	; 0
 7ce:	ec 0f       	add	r30, r28
 7d0:	fd 1f       	adc	r31, r29
 7d2:	e8 0f       	add	r30, r24
 7d4:	f9 1f       	adc	r31, r25
 7d6:	80 81       	ld	r24, Z
 7d8:	88 23       	and	r24, r24
 7da:	31 f0       	breq	.+12     	; 0x7e8 <__BOOTROW_REGION_LENGTH__+0x3e8>
 7dc:	8c 81       	ldd	r24, Y+4	; 0x04
 7de:	9d 81       	ldd	r25, Y+5	; 0x05
 7e0:	01 96       	adiw	r24, 0x01	; 1
 7e2:	9d 83       	std	Y+5, r25	; 0x05
 7e4:	8c 83       	std	Y+4, r24	; 0x04
 7e6:	ed cf       	rjmp	.-38     	; 0x7c2 <__BOOTROW_REGION_LENGTH__+0x3c2>
 7e8:	41 2c       	mov	r4, r1
 7ea:	51 2c       	mov	r5, r1
 7ec:	b7 01       	movw	r22, r14
 7ee:	c5 01       	movw	r24, r10
 7f0:	0e 94 2e 17 	call	0x2e5c	; 0x2e5c <ungetc>
 7f4:	89 81       	ldd	r24, Y+1	; 0x01
 7f6:	9a 81       	ldd	r25, Y+2	; 0x02
 7f8:	ab 81       	ldd	r26, Y+3	; 0x03
 7fa:	01 96       	adiw	r24, 0x01	; 1
 7fc:	a1 1d       	adc	r26, r1
 7fe:	89 83       	std	Y+1, r24	; 0x01
 800:	9a 83       	std	Y+2, r25	; 0x02
 802:	ab 83       	std	Y+3, r26	; 0x03
 804:	41 14       	cp	r4, r1
 806:	51 04       	cpc	r5, r1
 808:	51 f0       	breq	.+20     	; 0x81e <__DATA_REGION_LENGTH__+0x1e>
 80a:	01 15       	cp	r16, r1
 80c:	11 05       	cpc	r17, r1
 80e:	39 f0       	breq	.+14     	; 0x81e <__DATA_REGION_LENGTH__+0x1e>
 810:	f8 01       	movw	r30, r16
 812:	e4 0d       	add	r30, r4
 814:	f5 1d       	adc	r31, r5
 816:	10 82       	st	Z, r1
 818:	81 e0       	ldi	r24, 0x01	; 1
 81a:	90 e0       	ldi	r25, 0x00	; 0
 81c:	13 c0       	rjmp	.+38     	; 0x844 <__DATA_REGION_LENGTH__+0x44>
 81e:	89 81       	ldd	r24, Y+1	; 0x01
 820:	9a 81       	ldd	r25, Y+2	; 0x02
 822:	ab 81       	ldd	r26, Y+3	; 0x03
 824:	01 96       	adiw	r24, 0x01	; 1
 826:	a1 1d       	adc	r26, r1
 828:	89 83       	std	Y+1, r24	; 0x01
 82a:	9a 83       	std	Y+2, r25	; 0x02
 82c:	ab 83       	std	Y+3, r26	; 0x03
 82e:	81 e0       	ldi	r24, 0x01	; 1
 830:	90 e0       	ldi	r25, 0x00	; 0
 832:	ff ef       	ldi	r31, 0xFF	; 255
 834:	af 16       	cp	r10, r31
 836:	bf 06       	cpc	r11, r31
 838:	11 f0       	breq	.+4      	; 0x83e <__DATA_REGION_LENGTH__+0x3e>
 83a:	80 e0       	ldi	r24, 0x00	; 0
 83c:	90 e0       	ldi	r25, 0x00	; 0
 83e:	91 95       	neg	r25
 840:	81 95       	neg	r24
 842:	91 09       	sbc	r25, r1
 844:	97 fd       	sbrc	r25, 7
 846:	03 c0       	rjmp	.+6      	; 0x84e <__DATA_REGION_LENGTH__+0x4e>
 848:	68 0e       	add	r6, r24
 84a:	79 1e       	adc	r7, r25
 84c:	dc cc       	rjmp	.-1608   	; 0x206 <__scanf_core+0x26>
 84e:	8f 3f       	cpi	r24, 0xFF	; 255
 850:	2f ef       	ldi	r18, 0xFF	; 255
 852:	92 07       	cpc	r25, r18
 854:	19 f4       	brne	.+6      	; 0x85c <__DATA_REGION_LENGTH__+0x5c>
 856:	61 14       	cp	r6, r1
 858:	71 04       	cpc	r7, r1
 85a:	09 f0       	breq	.+2      	; 0x85e <__DATA_REGION_LENGTH__+0x5e>
 85c:	c3 01       	movw	r24, r6
 85e:	c0 57       	subi	r28, 0x70	; 112
 860:	de 4f       	sbci	r29, 0xFE	; 254
 862:	e2 e1       	ldi	r30, 0x12	; 18
 864:	0c 94 69 17 	jmp	0x2ed2	; 0x2ed2 <__epilogue_restores__>

Disassembly of section .text.fgetc:

00002252 <fgetc>:
    2252:	cf 93       	push	r28
    2254:	df 93       	push	r29
    2256:	dc 01       	movw	r26, r24
    2258:	1b 96       	adiw	r26, 0x0b	; 11
    225a:	8d 91       	ld	r24, X+
    225c:	9c 91       	ld	r25, X
    225e:	1c 97       	sbiw	r26, 0x0c	; 12
    2260:	00 97       	sbiw	r24, 0x00	; 0
    2262:	b9 f0       	breq	.+46     	; 0x2292 <fgetc+0x40>
    2264:	01 97       	sbiw	r24, 0x01	; 1
    2266:	1c 96       	adiw	r26, 0x0c	; 12
    2268:	9c 93       	st	X, r25
    226a:	8e 93       	st	-X, r24
    226c:	1b 97       	sbiw	r26, 0x0b	; 11
    226e:	fd 01       	movw	r30, r26
    2270:	e8 0f       	add	r30, r24
    2272:	f9 1f       	adc	r31, r25
    2274:	81 85       	ldd	r24, Z+9	; 0x09
    2276:	17 96       	adiw	r26, 0x07	; 7
    2278:	2d 91       	ld	r18, X+
    227a:	3c 91       	ld	r19, X
    227c:	18 97       	sbiw	r26, 0x08	; 8
    227e:	2f 5f       	subi	r18, 0xFF	; 255
    2280:	3f 4f       	sbci	r19, 0xFF	; 255
    2282:	18 96       	adiw	r26, 0x08	; 8
    2284:	3c 93       	st	X, r19
    2286:	2e 93       	st	-X, r18
    2288:	17 97       	sbiw	r26, 0x07	; 7
    228a:	08 2e       	mov	r0, r24
    228c:	00 0c       	add	r0, r0
    228e:	99 0b       	sbc	r25, r25
    2290:	2e c0       	rjmp	.+92     	; 0x22ee <fgetc+0x9c>
    2292:	8d 91       	ld	r24, X+
    2294:	9c 91       	ld	r25, X
    2296:	11 97       	sbiw	r26, 0x01	; 1
    2298:	90 ff       	sbrs	r25, 0
    229a:	16 c0       	rjmp	.+44     	; 0x22c8 <fgetc+0x76>
    229c:	12 96       	adiw	r26, 0x02	; 2
    229e:	2d 91       	ld	r18, X+
    22a0:	3d 91       	ld	r19, X+
    22a2:	4c 91       	ld	r20, X
    22a4:	14 97       	sbiw	r26, 0x04	; 4
    22a6:	f9 01       	movw	r30, r18
    22a8:	84 91       	lpm	r24, Z
    22aa:	47 fd       	sbrc	r20, 7
    22ac:	80 81       	ld	r24, Z
    22ae:	08 2e       	mov	r0, r24
    22b0:	00 0c       	add	r0, r0
    22b2:	99 0b       	sbc	r25, r25
    22b4:	00 97       	sbiw	r24, 0x00	; 0
    22b6:	c9 f0       	breq	.+50     	; 0x22ea <fgetc+0x98>
    22b8:	2f 5f       	subi	r18, 0xFF	; 255
    22ba:	3f 4f       	sbci	r19, 0xFF	; 255
    22bc:	4f 4f       	sbci	r20, 0xFF	; 255
    22be:	12 96       	adiw	r26, 0x02	; 2
    22c0:	2d 93       	st	X+, r18
    22c2:	3d 93       	st	X+, r19
    22c4:	4c 93       	st	X, r20
    22c6:	0f c0       	rjmp	.+30     	; 0x22e6 <fgetc+0x94>
    22c8:	1f 96       	adiw	r26, 0x0f	; 15
    22ca:	ed 91       	ld	r30, X+
    22cc:	fc 91       	ld	r31, X
    22ce:	50 97       	sbiw	r26, 0x10	; 16
    22d0:	30 97       	sbiw	r30, 0x00	; 0
    22d2:	59 f0       	breq	.+22     	; 0x22ea <fgetc+0x98>
    22d4:	ed 01       	movw	r28, r26
    22d6:	cd 01       	movw	r24, r26
    22d8:	09 95       	icall
    22da:	2f 81       	ldd	r18, Y+7	; 0x07
    22dc:	38 85       	ldd	r19, Y+8	; 0x08
    22de:	2f 5f       	subi	r18, 0xFF	; 255
    22e0:	3f 4f       	sbci	r19, 0xFF	; 255
    22e2:	38 87       	std	Y+8, r19	; 0x08
    22e4:	2f 83       	std	Y+7, r18	; 0x07
    22e6:	99 27       	eor	r25, r25
    22e8:	02 c0       	rjmp	.+4      	; 0x22ee <fgetc+0x9c>
    22ea:	8f ef       	ldi	r24, 0xFF	; 255
    22ec:	9f ef       	ldi	r25, 0xFF	; 255
    22ee:	df 91       	pop	r29
    22f0:	cf 91       	pop	r28
    22f2:	08 95       	ret

Disassembly of section .text.ungetc:

00002e5c <ungetc>:
    2e5c:	fb 01       	movw	r30, r22
    2e5e:	8f 3f       	cpi	r24, 0xFF	; 255
    2e60:	2f ef       	ldi	r18, 0xFF	; 255
    2e62:	92 07       	cpc	r25, r18
    2e64:	b9 f0       	breq	.+46     	; 0x2e94 <ungetc+0x38>
    2e66:	23 85       	ldd	r18, Z+11	; 0x0b
    2e68:	34 85       	ldd	r19, Z+12	; 0x0c
    2e6a:	22 30       	cpi	r18, 0x02	; 2
    2e6c:	31 05       	cpc	r19, r1
    2e6e:	94 f4       	brge	.+36     	; 0x2e94 <ungetc+0x38>
    2e70:	a9 01       	movw	r20, r18
    2e72:	4f 5f       	subi	r20, 0xFF	; 255
    2e74:	5f 4f       	sbci	r21, 0xFF	; 255
    2e76:	54 87       	std	Z+12, r21	; 0x0c
    2e78:	43 87       	std	Z+11, r20	; 0x0b
    2e7a:	db 01       	movw	r26, r22
    2e7c:	a2 0f       	add	r26, r18
    2e7e:	b3 1f       	adc	r27, r19
    2e80:	19 96       	adiw	r26, 0x09	; 9
    2e82:	8c 93       	st	X, r24
    2e84:	27 81       	ldd	r18, Z+7	; 0x07
    2e86:	30 85       	ldd	r19, Z+8	; 0x08
    2e88:	21 50       	subi	r18, 0x01	; 1
    2e8a:	31 09       	sbc	r19, r1
    2e8c:	30 87       	std	Z+8, r19	; 0x08
    2e8e:	27 83       	std	Z+7, r18	; 0x07
    2e90:	99 27       	eor	r25, r25
    2e92:	08 95       	ret
    2e94:	8f ef       	ldi	r24, 0xFF	; 255
    2e96:	9f ef       	ldi	r25, 0xFF	; 255
    2e98:	08 95       	ret

Disassembly of section .text.fputc:

00002432 <fputc>:
    2432:	0f 93       	push	r16
    2434:	1f 93       	push	r17
    2436:	cf 93       	push	r28
    2438:	df 93       	push	r29
    243a:	db 01       	movw	r26, r22
    243c:	10 97       	sbiw	r26, 0x00	; 0
    243e:	19 f4       	brne	.+6      	; 0x2446 <fputc+0x14>
    2440:	8f ef       	ldi	r24, 0xFF	; 255
    2442:	9f ef       	ldi	r25, 0xFF	; 255
    2444:	3d c0       	rjmp	.+122    	; 0x24c0 <fputc+0x8e>
    2446:	2d 91       	ld	r18, X+
    2448:	3c 91       	ld	r19, X
    244a:	11 97       	sbiw	r26, 0x01	; 1
    244c:	30 ff       	sbrs	r19, 0
    244e:	25 c0       	rjmp	.+74     	; 0x249a <fputc+0x68>
    2450:	17 96       	adiw	r26, 0x07	; 7
    2452:	4d 91       	ld	r20, X+
    2454:	5c 91       	ld	r21, X
    2456:	18 97       	sbiw	r26, 0x08	; 8
    2458:	15 96       	adiw	r26, 0x05	; 5
    245a:	2d 91       	ld	r18, X+
    245c:	3c 91       	ld	r19, X
    245e:	16 97       	sbiw	r26, 0x06	; 6
    2460:	42 17       	cp	r20, r18
    2462:	53 07       	cpc	r21, r19
    2464:	78 f4       	brcc	.+30     	; 0x2484 <fputc+0x52>
    2466:	12 96       	adiw	r26, 0x02	; 2
    2468:	ed 91       	ld	r30, X+
    246a:	fc 91       	ld	r31, X
    246c:	13 97       	sbiw	r26, 0x03	; 3
    246e:	80 83       	st	Z, r24
    2470:	12 96       	adiw	r26, 0x02	; 2
    2472:	2d 91       	ld	r18, X+
    2474:	3c 91       	ld	r19, X
    2476:	13 97       	sbiw	r26, 0x03	; 3
    2478:	2f 5f       	subi	r18, 0xFF	; 255
    247a:	3f 4f       	sbci	r19, 0xFF	; 255
    247c:	13 96       	adiw	r26, 0x03	; 3
    247e:	3c 93       	st	X, r19
    2480:	2e 93       	st	-X, r18
    2482:	12 97       	sbiw	r26, 0x02	; 2
    2484:	17 96       	adiw	r26, 0x07	; 7
    2486:	2d 91       	ld	r18, X+
    2488:	3c 91       	ld	r19, X
    248a:	18 97       	sbiw	r26, 0x08	; 8
    248c:	2f 5f       	subi	r18, 0xFF	; 255
    248e:	3f 4f       	sbci	r19, 0xFF	; 255
    2490:	18 96       	adiw	r26, 0x08	; 8
    2492:	3c 93       	st	X, r19
    2494:	2e 93       	st	-X, r18
    2496:	17 97       	sbiw	r26, 0x07	; 7
    2498:	13 c0       	rjmp	.+38     	; 0x24c0 <fputc+0x8e>
    249a:	1d 96       	adiw	r26, 0x0d	; 13
    249c:	ed 91       	ld	r30, X+
    249e:	fc 91       	ld	r31, X
    24a0:	1e 97       	sbiw	r26, 0x0e	; 14
    24a2:	30 97       	sbiw	r30, 0x00	; 0
    24a4:	69 f2       	breq	.-102    	; 0x2440 <fputc+0xe>
    24a6:	eb 01       	movw	r28, r22
    24a8:	09 2f       	mov	r16, r25
    24aa:	18 2f       	mov	r17, r24
    24ac:	09 95       	icall
    24ae:	89 2b       	or	r24, r25
    24b0:	39 f6       	brne	.-114    	; 0x2440 <fputc+0xe>
    24b2:	8f 81       	ldd	r24, Y+7	; 0x07
    24b4:	98 85       	ldd	r25, Y+8	; 0x08
    24b6:	01 96       	adiw	r24, 0x01	; 1
    24b8:	98 87       	std	Y+8, r25	; 0x08
    24ba:	8f 83       	std	Y+7, r24	; 0x07
    24bc:	81 2f       	mov	r24, r17
    24be:	90 2f       	mov	r25, r16
    24c0:	df 91       	pop	r29
    24c2:	cf 91       	pop	r28
    24c4:	1f 91       	pop	r17
    24c6:	0f 91       	pop	r16
    24c8:	08 95       	ret

Disassembly of section .text.__push_float:

000029e8 <__push_float>:
    29e8:	cf 93       	push	r28
    29ea:	df 93       	push	r29
    29ec:	dc 01       	movw	r26, r24
    29ee:	fa 01       	movw	r30, r20
    29f0:	61 38       	cpi	r22, 0x81	; 129
    29f2:	71 05       	cpc	r23, r1
    29f4:	a9 f0       	breq	.+42     	; 0x2a20 <__push_float+0x38>
    29f6:	63 38       	cpi	r22, 0x83	; 131
    29f8:	71 05       	cpc	r23, r1
    29fa:	21 f0       	breq	.+8      	; 0x2a04 <__push_float+0x1c>
    29fc:	60 38       	cpi	r22, 0x80	; 128
    29fe:	71 05       	cpc	r23, r1
    2a00:	19 f5       	brne	.+70     	; 0x2a48 <__push_float+0x60>
    2a02:	0e c0       	rjmp	.+28     	; 0x2a20 <__push_float+0x38>
    2a04:	c0 81       	ld	r28, Z
    2a06:	d1 81       	ldd	r29, Z+1	; 0x01
    2a08:	ce 01       	movw	r24, r28
    2a0a:	03 96       	adiw	r24, 0x03	; 3
    2a0c:	91 83       	std	Z+1, r25	; 0x01
    2a0e:	80 83       	st	Z, r24
    2a10:	8d 91       	ld	r24, X+
    2a12:	9d 91       	ld	r25, X+
    2a14:	0d 90       	ld	r0, X+
    2a16:	bc 91       	ld	r27, X
    2a18:	a0 2d       	mov	r26, r0
    2a1a:	e8 81       	ld	r30, Y
    2a1c:	f9 81       	ldd	r31, Y+1	; 0x01
    2a1e:	0d c0       	rjmp	.+26     	; 0x2a3a <__push_float+0x52>
    2a20:	c0 81       	ld	r28, Z
    2a22:	d1 81       	ldd	r29, Z+1	; 0x01
    2a24:	ce 01       	movw	r24, r28
    2a26:	03 96       	adiw	r24, 0x03	; 3
    2a28:	91 83       	std	Z+1, r25	; 0x01
    2a2a:	80 83       	st	Z, r24
    2a2c:	e8 81       	ld	r30, Y
    2a2e:	f9 81       	ldd	r31, Y+1	; 0x01
    2a30:	8d 91       	ld	r24, X+
    2a32:	9d 91       	ld	r25, X+
    2a34:	0d 90       	ld	r0, X+
    2a36:	bc 91       	ld	r27, X
    2a38:	a0 2d       	mov	r26, r0
    2a3a:	80 83       	st	Z, r24
    2a3c:	91 83       	std	Z+1, r25	; 0x01
    2a3e:	a2 83       	std	Z+2, r26	; 0x02
    2a40:	b3 83       	std	Z+3, r27	; 0x03
    2a42:	81 e0       	ldi	r24, 0x01	; 1
    2a44:	90 e0       	ldi	r25, 0x00	; 0
    2a46:	02 c0       	rjmp	.+4      	; 0x2a4c <__push_float+0x64>
    2a48:	80 e0       	ldi	r24, 0x00	; 0
    2a4a:	90 e0       	ldi	r25, 0x00	; 0
    2a4c:	df 91       	pop	r29
    2a4e:	cf 91       	pop	r28
    2a50:	08 95       	ret

Disassembly of section .text.__push_int:

000018dc <__push_int>:
    18dc:	cf 93       	push	r28
    18de:	df 93       	push	r29
    18e0:	fc 01       	movw	r30, r24
    18e2:	d9 01       	movw	r26, r18
    18e4:	68 38       	cpi	r22, 0x88	; 136
    18e6:	71 05       	cpc	r23, r1
    18e8:	21 f1       	breq	.+72     	; 0x1932 <__push_int+0x56>
    18ea:	8c f4       	brge	.+34     	; 0x190e <__push_int+0x32>
    18ec:	61 38       	cpi	r22, 0x81	; 129
    18ee:	71 05       	cpc	r23, r1
    18f0:	61 f1       	breq	.+88     	; 0x194a <__push_int+0x6e>
    18f2:	2c f4       	brge	.+10     	; 0x18fe <__push_int+0x22>
    18f4:	60 38       	cpi	r22, 0x80	; 128
    18f6:	71 05       	cpc	r23, r1
    18f8:	09 f4       	brne	.+2      	; 0x18fc <__push_int+0x20>
    18fa:	76 c0       	rjmp	.+236    	; 0x19e8 <__push_int+0x10c>
    18fc:	85 c0       	rjmp	.+266    	; 0x1a08 <__push_int+0x12c>
    18fe:	62 38       	cpi	r22, 0x82	; 130
    1900:	71 05       	cpc	r23, r1
    1902:	b1 f1       	breq	.+108    	; 0x1970 <__push_int+0x94>
    1904:	64 38       	cpi	r22, 0x84	; 132
    1906:	71 05       	cpc	r23, r1
    1908:	09 f4       	brne	.+2      	; 0x190c <__push_int+0x30>
    190a:	6e c0       	rjmp	.+220    	; 0x19e8 <__push_int+0x10c>
    190c:	7d c0       	rjmp	.+250    	; 0x1a08 <__push_int+0x12c>
    190e:	60 3a       	cpi	r22, 0xA0	; 160
    1910:	71 05       	cpc	r23, r1
    1912:	09 f4       	brne	.+2      	; 0x1916 <__push_int+0x3a>
    1914:	69 c0       	rjmp	.+210    	; 0x19e8 <__push_int+0x10c>
    1916:	24 f4       	brge	.+8      	; 0x1920 <__push_int+0x44>
    1918:	60 39       	cpi	r22, 0x90	; 144
    191a:	71 05       	cpc	r23, r1
    191c:	49 f1       	breq	.+82     	; 0x1970 <__push_int+0x94>
    191e:	74 c0       	rjmp	.+232    	; 0x1a08 <__push_int+0x12c>
    1920:	60 3c       	cpi	r22, 0xC0	; 192
    1922:	71 05       	cpc	r23, r1
    1924:	09 f4       	brne	.+2      	; 0x1928 <__push_int+0x4c>
    1926:	60 c0       	rjmp	.+192    	; 0x19e8 <__push_int+0x10c>
    1928:	60 3f       	cpi	r22, 0xF0	; 240
    192a:	71 05       	cpc	r23, r1
    192c:	09 f4       	brne	.+2      	; 0x1930 <__push_int+0x54>
    192e:	5c c0       	rjmp	.+184    	; 0x19e8 <__push_int+0x10c>
    1930:	6b c0       	rjmp	.+214    	; 0x1a08 <__push_int+0x12c>
    1932:	cd 91       	ld	r28, X+
    1934:	dc 91       	ld	r29, X
    1936:	11 97       	sbiw	r26, 0x01	; 1
    1938:	ce 01       	movw	r24, r28
    193a:	03 96       	adiw	r24, 0x03	; 3
    193c:	8d 93       	st	X+, r24
    193e:	9c 93       	st	X, r25
    1940:	a8 81       	ld	r26, Y
    1942:	b9 81       	ldd	r27, Y+1	; 0x01
    1944:	80 81       	ld	r24, Z
    1946:	8c 93       	st	X, r24
    1948:	5c c0       	rjmp	.+184    	; 0x1a02 <__push_int+0x126>
    194a:	cd 91       	ld	r28, X+
    194c:	dc 91       	ld	r29, X
    194e:	11 97       	sbiw	r26, 0x01	; 1
    1950:	ce 01       	movw	r24, r28
    1952:	03 96       	adiw	r24, 0x03	; 3
    1954:	8d 93       	st	X+, r24
    1956:	9c 93       	st	X, r25
    1958:	a8 81       	ld	r26, Y
    195a:	b9 81       	ldd	r27, Y+1	; 0x01
    195c:	40 81       	ld	r20, Z
    195e:	51 81       	ldd	r21, Z+1	; 0x01
    1960:	62 81       	ldd	r22, Z+2	; 0x02
    1962:	73 81       	ldd	r23, Z+3	; 0x03
    1964:	4d 93       	st	X+, r20
    1966:	5d 93       	st	X+, r21
    1968:	6d 93       	st	X+, r22
    196a:	7c 93       	st	X, r23
    196c:	13 97       	sbiw	r26, 0x03	; 3
    196e:	49 c0       	rjmp	.+146    	; 0x1a02 <__push_int+0x126>
    1970:	cd 91       	ld	r28, X+
    1972:	dc 91       	ld	r29, X
    1974:	11 97       	sbiw	r26, 0x01	; 1
    1976:	ce 01       	movw	r24, r28
    1978:	03 96       	adiw	r24, 0x03	; 3
    197a:	8d 93       	st	X+, r24
    197c:	9c 93       	st	X, r25
    197e:	45 2b       	or	r20, r21
    1980:	99 f0       	breq	.+38     	; 0x19a8 <__push_int+0xcc>
    1982:	70 81       	ld	r23, Z
    1984:	61 81       	ldd	r22, Z+1	; 0x01
    1986:	52 81       	ldd	r21, Z+2	; 0x02
    1988:	43 81       	ldd	r20, Z+3	; 0x03
    198a:	34 81       	ldd	r19, Z+4	; 0x04
    198c:	25 81       	ldd	r18, Z+5	; 0x05
    198e:	96 81       	ldd	r25, Z+6	; 0x06
    1990:	87 81       	ldd	r24, Z+7	; 0x07
    1992:	e8 81       	ld	r30, Y
    1994:	f9 81       	ldd	r31, Y+1	; 0x01
    1996:	70 83       	st	Z, r23
    1998:	61 83       	std	Z+1, r22	; 0x01
    199a:	52 83       	std	Z+2, r21	; 0x02
    199c:	43 83       	std	Z+3, r20	; 0x03
    199e:	34 83       	std	Z+4, r19	; 0x04
    19a0:	25 83       	std	Z+5, r18	; 0x05
    19a2:	96 83       	std	Z+6, r25	; 0x06
    19a4:	87 83       	std	Z+7, r24	; 0x07
    19a6:	2d c0       	rjmp	.+90     	; 0x1a02 <__push_int+0x126>
    19a8:	a8 81       	ld	r26, Y
    19aa:	b9 81       	ldd	r27, Y+1	; 0x01
    19ac:	70 81       	ld	r23, Z
    19ae:	61 81       	ldd	r22, Z+1	; 0x01
    19b0:	52 81       	ldd	r21, Z+2	; 0x02
    19b2:	43 81       	ldd	r20, Z+3	; 0x03
    19b4:	34 81       	ldd	r19, Z+4	; 0x04
    19b6:	25 81       	ldd	r18, Z+5	; 0x05
    19b8:	96 81       	ldd	r25, Z+6	; 0x06
    19ba:	87 81       	ldd	r24, Z+7	; 0x07
    19bc:	7c 93       	st	X, r23
    19be:	11 96       	adiw	r26, 0x01	; 1
    19c0:	6c 93       	st	X, r22
    19c2:	11 97       	sbiw	r26, 0x01	; 1
    19c4:	12 96       	adiw	r26, 0x02	; 2
    19c6:	5c 93       	st	X, r21
    19c8:	12 97       	sbiw	r26, 0x02	; 2
    19ca:	13 96       	adiw	r26, 0x03	; 3
    19cc:	4c 93       	st	X, r20
    19ce:	13 97       	sbiw	r26, 0x03	; 3
    19d0:	14 96       	adiw	r26, 0x04	; 4
    19d2:	3c 93       	st	X, r19
    19d4:	14 97       	sbiw	r26, 0x04	; 4
    19d6:	15 96       	adiw	r26, 0x05	; 5
    19d8:	2c 93       	st	X, r18
    19da:	15 97       	sbiw	r26, 0x05	; 5
    19dc:	16 96       	adiw	r26, 0x06	; 6
    19de:	9c 93       	st	X, r25
    19e0:	16 97       	sbiw	r26, 0x06	; 6
    19e2:	17 96       	adiw	r26, 0x07	; 7
    19e4:	8c 93       	st	X, r24
    19e6:	0d c0       	rjmp	.+26     	; 0x1a02 <__push_int+0x126>
    19e8:	cd 91       	ld	r28, X+
    19ea:	dc 91       	ld	r29, X
    19ec:	11 97       	sbiw	r26, 0x01	; 1
    19ee:	ce 01       	movw	r24, r28
    19f0:	03 96       	adiw	r24, 0x03	; 3
    19f2:	8d 93       	st	X+, r24
    19f4:	9c 93       	st	X, r25
    19f6:	a8 81       	ld	r26, Y
    19f8:	b9 81       	ldd	r27, Y+1	; 0x01
    19fa:	80 81       	ld	r24, Z
    19fc:	91 81       	ldd	r25, Z+1	; 0x01
    19fe:	8d 93       	st	X+, r24
    1a00:	9c 93       	st	X, r25
    1a02:	81 e0       	ldi	r24, 0x01	; 1
    1a04:	90 e0       	ldi	r25, 0x00	; 0
    1a06:	02 c0       	rjmp	.+4      	; 0x1a0c <__push_int+0x130>
    1a08:	80 e0       	ldi	r24, 0x00	; 0
    1a0a:	90 e0       	ldi	r25, 0x00	; 0
    1a0c:	df 91       	pop	r29
    1a0e:	cf 91       	pop	r28
    1a10:	08 95       	ret

Disassembly of section .text.atoi:

00002684 <atoi>:
    2684:	cf 93       	push	r28
    2686:	9b 01       	movw	r18, r22
    2688:	48 2f       	mov	r20, r24
    268a:	f9 01       	movw	r30, r18
    268c:	84 91       	lpm	r24, Z
    268e:	47 fd       	sbrc	r20, 7
    2690:	80 81       	ld	r24, Z
    2692:	80 32       	cpi	r24, 0x20	; 32
    2694:	c9 f1       	breq	.+114    	; 0x2708 <atoi+0x84>
    2696:	68 2f       	mov	r22, r24
    2698:	08 2e       	mov	r0, r24
    269a:	00 0c       	add	r0, r0
    269c:	77 0b       	sbc	r23, r23
    269e:	69 50       	subi	r22, 0x09	; 9
    26a0:	71 09       	sbc	r23, r1
    26a2:	65 30       	cpi	r22, 0x05	; 5
    26a4:	71 05       	cpc	r23, r1
    26a6:	80 f1       	brcs	.+96     	; 0x2708 <atoi+0x84>
    26a8:	8b 32       	cpi	r24, 0x2B	; 43
    26aa:	49 f5       	brne	.+82     	; 0x26fe <atoi+0x7a>
    26ac:	a0 e0       	ldi	r26, 0x00	; 0
    26ae:	b0 e0       	ldi	r27, 0x00	; 0
    26b0:	2f 5f       	subi	r18, 0xFF	; 255
    26b2:	3f 4f       	sbci	r19, 0xFF	; 255
    26b4:	4f 4f       	sbci	r20, 0xFF	; 255
    26b6:	02 c0       	rjmp	.+4      	; 0x26bc <atoi+0x38>
    26b8:	a0 e0       	ldi	r26, 0x00	; 0
    26ba:	b0 e0       	ldi	r27, 0x00	; 0
    26bc:	80 e0       	ldi	r24, 0x00	; 0
    26be:	90 e0       	ldi	r25, 0x00	; 0
    26c0:	ca e0       	ldi	r28, 0x0A	; 10
    26c2:	f9 01       	movw	r30, r18
    26c4:	64 91       	lpm	r22, Z
    26c6:	47 fd       	sbrc	r20, 7
    26c8:	60 81       	ld	r22, Z
    26ca:	06 2e       	mov	r0, r22
    26cc:	00 0c       	add	r0, r0
    26ce:	77 0b       	sbc	r23, r23
    26d0:	60 53       	subi	r22, 0x30	; 48
    26d2:	71 09       	sbc	r23, r1
    26d4:	6a 30       	cpi	r22, 0x0A	; 10
    26d6:	71 05       	cpc	r23, r1
    26d8:	60 f4       	brcc	.+24     	; 0x26f2 <atoi+0x6e>
    26da:	c8 9f       	mul	r28, r24
    26dc:	f0 01       	movw	r30, r0
    26de:	c9 9f       	mul	r28, r25
    26e0:	f0 0d       	add	r31, r0
    26e2:	11 24       	eor	r1, r1
    26e4:	2f 5f       	subi	r18, 0xFF	; 255
    26e6:	3f 4f       	sbci	r19, 0xFF	; 255
    26e8:	4f 4f       	sbci	r20, 0xFF	; 255
    26ea:	cf 01       	movw	r24, r30
    26ec:	86 1b       	sub	r24, r22
    26ee:	97 0b       	sbc	r25, r23
    26f0:	e8 cf       	rjmp	.-48     	; 0x26c2 <atoi+0x3e>
    26f2:	ab 2b       	or	r26, r27
    26f4:	69 f4       	brne	.+26     	; 0x2710 <atoi+0x8c>
    26f6:	91 95       	neg	r25
    26f8:	81 95       	neg	r24
    26fa:	91 09       	sbc	r25, r1
    26fc:	09 c0       	rjmp	.+18     	; 0x2710 <atoi+0x8c>
    26fe:	8d 32       	cpi	r24, 0x2D	; 45
    2700:	d9 f6       	brne	.-74     	; 0x26b8 <atoi+0x34>
    2702:	a1 e0       	ldi	r26, 0x01	; 1
    2704:	b0 e0       	ldi	r27, 0x00	; 0
    2706:	d4 cf       	rjmp	.-88     	; 0x26b0 <atoi+0x2c>
    2708:	2f 5f       	subi	r18, 0xFF	; 255
    270a:	3f 4f       	sbci	r19, 0xFF	; 255
    270c:	4f 4f       	sbci	r20, 0xFF	; 255
    270e:	bd cf       	rjmp	.-134    	; 0x268a <atoi+0x6>
    2710:	cf 91       	pop	r28
    2712:	08 95       	ret

Disassembly of section .text.strtoll:

00003226 <strtoll>:
    3226:	0f 93       	push	r16
    3228:	01 e0       	ldi	r16, 0x01	; 1
    322a:	0e 94 a0 06 	call	0xd40	; 0xd40 <__strtoxll>
    322e:	0f 91       	pop	r16
    3230:	08 95       	ret

Disassembly of section .text.strtoull:

00003232 <strtoull>:
    3232:	0f 93       	push	r16
    3234:	00 e0       	ldi	r16, 0x00	; 0
    3236:	0e 94 a0 06 	call	0xd40	; 0xd40 <__strtoxll>
    323a:	0f 91       	pop	r16
    323c:	08 95       	ret

Disassembly of section .text.memcpy:

00002f08 <memcpy>:
    2f08:	cf 92       	push	r12
    2f0a:	df 92       	push	r13
    2f0c:	ef 92       	push	r14
    2f0e:	6a 01       	movw	r12, r20
    2f10:	e6 2e       	mov	r14, r22
    2f12:	dc 01       	movw	r26, r24
    2f14:	28 0f       	add	r18, r24
    2f16:	39 1f       	adc	r19, r25
    2f18:	a2 17       	cp	r26, r18
    2f1a:	b3 07       	cpc	r27, r19
    2f1c:	51 f0       	breq	.+20     	; 0x2f32 <memcpy+0x2a>
    2f1e:	f6 01       	movw	r30, r12
    2f20:	44 91       	lpm	r20, Z
    2f22:	e7 fc       	sbrc	r14, 7
    2f24:	40 81       	ld	r20, Z
    2f26:	4d 93       	st	X+, r20
    2f28:	4f ef       	ldi	r20, 0xFF	; 255
    2f2a:	c4 1a       	sub	r12, r20
    2f2c:	d4 0a       	sbc	r13, r20
    2f2e:	e4 0a       	sbc	r14, r20
    2f30:	f3 cf       	rjmp	.-26     	; 0x2f18 <memcpy+0x10>
    2f32:	ef 90       	pop	r14
    2f34:	df 90       	pop	r13
    2f36:	cf 90       	pop	r12
    2f38:	08 95       	ret

Disassembly of section .text.memset:

000031ac <memset>:
    31ac:	fc 01       	movw	r30, r24
    31ae:	48 0f       	add	r20, r24
    31b0:	59 1f       	adc	r21, r25
    31b2:	e4 17       	cp	r30, r20
    31b4:	f5 07       	cpc	r31, r21
    31b6:	11 f0       	breq	.+4      	; 0x31bc <memset+0x10>
    31b8:	61 93       	st	Z+, r22
    31ba:	fb cf       	rjmp	.-10     	; 0x31b2 <memset+0x6>
    31bc:	08 95       	ret

Disassembly of section .text.strcpy:

00003112 <strcpy>:
    3112:	9a 01       	movw	r18, r20
    3114:	46 2f       	mov	r20, r22
    3116:	dc 01       	movw	r26, r24
    3118:	f9 01       	movw	r30, r18
    311a:	54 91       	lpm	r21, Z
    311c:	47 fd       	sbrc	r20, 7
    311e:	50 81       	ld	r21, Z
    3120:	5d 93       	st	X+, r21
    3122:	2f 5f       	subi	r18, 0xFF	; 255
    3124:	3f 4f       	sbci	r19, 0xFF	; 255
    3126:	4f 4f       	sbci	r20, 0xFF	; 255
    3128:	51 11       	cpse	r21, r1
    312a:	f6 cf       	rjmp	.-20     	; 0x3118 <strcpy+0x6>
    312c:	08 95       	ret

Disassembly of section .text.strlen:

00002fc8 <strlen>:
    2fc8:	cf 92       	push	r12
    2fca:	df 92       	push	r13
    2fcc:	ef 92       	push	r14
    2fce:	6b 01       	movw	r12, r22
    2fd0:	e8 2e       	mov	r14, r24
    2fd2:	a8 2f       	mov	r26, r24
    2fd4:	cb 01       	movw	r24, r22
    2fd6:	fc 01       	movw	r30, r24
    2fd8:	24 91       	lpm	r18, Z
    2fda:	a7 fd       	sbrc	r26, 7
    2fdc:	20 81       	ld	r18, Z
    2fde:	22 23       	and	r18, r18
    2fe0:	19 f0       	breq	.+6      	; 0x2fe8 <strlen+0x20>
    2fe2:	01 96       	adiw	r24, 0x01	; 1
    2fe4:	a1 1d       	adc	r26, r1
    2fe6:	f7 cf       	rjmp	.-18     	; 0x2fd6 <strlen+0xe>
    2fe8:	8c 19       	sub	r24, r12
    2fea:	9d 09       	sbc	r25, r13
    2fec:	ef 90       	pop	r14
    2fee:	df 90       	pop	r13
    2ff0:	cf 90       	pop	r12
    2ff2:	08 95       	ret

Disassembly of section .text.strncpy:

00002c7a <strncpy>:
    2c7a:	cf 92       	push	r12
    2c7c:	df 92       	push	r13
    2c7e:	ef 92       	push	r14
    2c80:	6a 01       	movw	r12, r20
    2c82:	e6 2e       	mov	r14, r22
    2c84:	ac 01       	movw	r20, r24
    2c86:	21 15       	cp	r18, r1
    2c88:	31 05       	cpc	r19, r1
    2c8a:	c9 f0       	breq	.+50     	; 0x2cbe <strncpy+0x44>
    2c8c:	21 50       	subi	r18, 0x01	; 1
    2c8e:	31 09       	sbc	r19, r1
    2c90:	4f 5f       	subi	r20, 0xFF	; 255
    2c92:	5f 4f       	sbci	r21, 0xFF	; 255
    2c94:	f6 01       	movw	r30, r12
    2c96:	64 91       	lpm	r22, Z
    2c98:	e7 fc       	sbrc	r14, 7
    2c9a:	60 81       	ld	r22, Z
    2c9c:	fa 01       	movw	r30, r20
    2c9e:	31 97       	sbiw	r30, 0x01	; 1
    2ca0:	60 83       	st	Z, r22
    2ca2:	7f ef       	ldi	r23, 0xFF	; 255
    2ca4:	c7 1a       	sub	r12, r23
    2ca6:	d7 0a       	sbc	r13, r23
    2ca8:	e7 0a       	sbc	r14, r23
    2caa:	61 11       	cpse	r22, r1
    2cac:	ec cf       	rjmp	.-40     	; 0x2c86 <strncpy+0xc>
    2cae:	fa 01       	movw	r30, r20
    2cb0:	24 0f       	add	r18, r20
    2cb2:	35 1f       	adc	r19, r21
    2cb4:	2e 17       	cp	r18, r30
    2cb6:	3f 07       	cpc	r19, r31
    2cb8:	11 f0       	breq	.+4      	; 0x2cbe <strncpy+0x44>
    2cba:	11 92       	st	Z+, r1
    2cbc:	fb cf       	rjmp	.-10     	; 0x2cb4 <strncpy+0x3a>
    2cbe:	ef 90       	pop	r14
    2cc0:	df 90       	pop	r13
    2cc2:	cf 90       	pop	r12
    2cc4:	08 95       	ret

Disassembly of section .text.isxdigit:

00002ff4 <isxdigit>:
    2ff4:	9c 01       	movw	r18, r24
    2ff6:	20 53       	subi	r18, 0x30	; 48
    2ff8:	31 09       	sbc	r19, r1
    2ffa:	2a 30       	cpi	r18, 0x0A	; 10
    2ffc:	31 05       	cpc	r19, r1
    2ffe:	58 f0       	brcs	.+22     	; 0x3016 <isxdigit+0x22>
    3000:	80 62       	ori	r24, 0x20	; 32
    3002:	81 56       	subi	r24, 0x61	; 97
    3004:	91 09       	sbc	r25, r1
    3006:	31 e0       	ldi	r19, 0x01	; 1
    3008:	20 e0       	ldi	r18, 0x00	; 0
    300a:	06 97       	sbiw	r24, 0x06	; 6
    300c:	08 f0       	brcs	.+2      	; 0x3010 <isxdigit+0x1c>
    300e:	30 e0       	ldi	r19, 0x00	; 0
    3010:	83 2f       	mov	r24, r19
    3012:	92 2f       	mov	r25, r18
    3014:	08 95       	ret
    3016:	81 e0       	ldi	r24, 0x01	; 1
    3018:	90 e0       	ldi	r25, 0x00	; 0
    301a:	08 95       	ret

Disassembly of section .text.tolower:

00003216 <tolower>:
    3216:	9c 01       	movw	r18, r24
    3218:	21 54       	subi	r18, 0x41	; 65
    321a:	31 09       	sbc	r19, r1
    321c:	2a 31       	cpi	r18, 0x1A	; 26
    321e:	31 05       	cpc	r19, r1
    3220:	08 f4       	brcc	.+2      	; 0x3224 <tolower+0xe>
    3222:	80 62       	ori	r24, 0x20	; 32
    3224:	08 95       	ret

Disassembly of section .text.toupper:

000031be <toupper>:
    31be:	9c 01       	movw	r18, r24
    31c0:	21 56       	subi	r18, 0x61	; 97
    31c2:	31 09       	sbc	r19, r1
    31c4:	2a 31       	cpi	r18, 0x1A	; 26
    31c6:	31 05       	cpc	r19, r1
    31c8:	10 f4       	brcc	.+4      	; 0x31ce <toupper+0x10>
    31ca:	8f 75       	andi	r24, 0x5F	; 95
    31cc:	99 27       	eor	r25, r25
    31ce:	08 95       	ret

Disassembly of section .text._Exit:

00003250 <_Exit>:
    3250:	0e 94 6b 00 	call	0xd6	; 0xd6 <_exit>

Disassembly of section .text.__vfscanf:

00002f3a <__vfscanf>:
    2f3a:	a2 e0       	ldi	r26, 0x02	; 2
    2f3c:	b0 e0       	ldi	r27, 0x00	; 0
    2f3e:	e3 ea       	ldi	r30, 0xA3	; 163
    2f40:	f7 e1       	ldi	r31, 0x17	; 23
    2f42:	0c 94 5b 17 	jmp	0x2eb6	; 0x2eb6 <__prologue_saves__+0x1c>
    2f46:	8c 01       	movw	r16, r24
    2f48:	3a 83       	std	Y+2, r19	; 0x02
    2f4a:	29 83       	std	Y+1, r18	; 0x01
    2f4c:	9e 01       	movw	r18, r28
    2f4e:	2f 5f       	subi	r18, 0xFF	; 255
    2f50:	3f 4f       	sbci	r19, 0xFF	; 255
    2f52:	0e 94 f0 00 	call	0x1e0	; 0x1e0 <__scanf_core>
    2f56:	f8 01       	movw	r30, r16
    2f58:	20 81       	ld	r18, Z
    2f5a:	24 ff       	sbrs	r18, 4
    2f5c:	02 c0       	rjmp	.+4      	; 0x2f62 <__vfscanf+0x28>
    2f5e:	8f ef       	ldi	r24, 0xFF	; 255
    2f60:	9f ef       	ldi	r25, 0xFF	; 255
    2f62:	22 96       	adiw	r28, 0x02	; 2
    2f64:	e4 e0       	ldi	r30, 0x04	; 4
    2f66:	0c 94 77 17 	jmp	0x2eee	; 0x2eee <__epilogue_restores__+0x1c>

Disassembly of section .text.__vsprintf:

0000312e <__vsprintf>:
    312e:	0f 93       	push	r16
    3130:	1f 93       	push	r17
    3132:	89 01       	movw	r16, r18
    3134:	9a 01       	movw	r18, r20
    3136:	46 2f       	mov	r20, r22
    3138:	6f ef       	ldi	r22, 0xFF	; 255
    313a:	7f e7       	ldi	r23, 0x7F	; 127
    313c:	0e 94 d7 10 	call	0x21ae	; 0x21ae <__vsnprintf>
    3140:	1f 91       	pop	r17
    3142:	0f 91       	pop	r16
    3144:	08 95       	ret

Disassembly of section .text.__vsnprintf:

000021ae <__vsnprintf>:
    21ae:	6f 92       	push	r6
    21b0:	7f 92       	push	r7
    21b2:	8f 92       	push	r8
    21b4:	ef 92       	push	r14
    21b6:	ff 92       	push	r15
    21b8:	0f 93       	push	r16
    21ba:	1f 93       	push	r17
    21bc:	cf 93       	push	r28
    21be:	df 93       	push	r29
    21c0:	cd b7       	in	r28, 0x3d	; 61
    21c2:	de b7       	in	r29, 0x3e	; 62
    21c4:	61 97       	sbiw	r28, 0x11	; 17
    21c6:	0f b6       	in	r0, 0x3f	; 63
    21c8:	f8 94       	cli
    21ca:	de bf       	out	0x3e, r29	; 62
    21cc:	0f be       	out	0x3f, r0	; 63
    21ce:	cd bf       	out	0x3d, r28	; 61
    21d0:	fe 01       	movw	r30, r28
    21d2:	31 96       	adiw	r30, 0x01	; 1
    21d4:	51 e1       	ldi	r21, 0x11	; 17
    21d6:	df 01       	movw	r26, r30
    21d8:	1d 92       	st	X+, r1
    21da:	5a 95       	dec	r21
    21dc:	e9 f7       	brne	.-6      	; 0x21d8 <__vsnprintf+0x2a>
    21de:	a2 e0       	ldi	r26, 0x02	; 2
    21e0:	b1 e0       	ldi	r27, 0x01	; 1
    21e2:	ba 83       	std	Y+2, r27	; 0x02
    21e4:	a9 83       	std	Y+1, r26	; 0x01
    21e6:	9c 83       	std	Y+4, r25	; 0x04
    21e8:	8b 83       	std	Y+3, r24	; 0x03
    21ea:	77 ff       	sbrs	r23, 7
    21ec:	09 c0       	rjmp	.+18     	; 0x2200 <__vsnprintf+0x52>
    21ee:	8f e4       	ldi	r24, 0x4F	; 79
    21f0:	90 e0       	ldi	r25, 0x00	; 0
    21f2:	90 93 e3 02 	sts	0x02E3, r25	; 0x8002e3 <__errno_val+0x1>
    21f6:	80 93 e2 02 	sts	0x02E2, r24	; 0x8002e2 <__errno_val>
    21fa:	8f ef       	ldi	r24, 0xFF	; 255
    21fc:	9f ef       	ldi	r25, 0xFF	; 255
    21fe:	19 c0       	rjmp	.+50     	; 0x2232 <__vsnprintf+0x84>
    2200:	39 01       	movw	r6, r18
    2202:	84 2e       	mov	r8, r20
    2204:	7c 01       	movw	r14, r24
    2206:	61 50       	subi	r22, 0x01	; 1
    2208:	71 09       	sbc	r23, r1
    220a:	7f 83       	std	Y+7, r23	; 0x07
    220c:	6e 83       	std	Y+6, r22	; 0x06
    220e:	98 01       	movw	r18, r16
    2210:	68 2d       	mov	r22, r8
    2212:	a3 01       	movw	r20, r6
    2214:	cf 01       	movw	r24, r30
    2216:	0e 94 b5 17 	call	0x2f6a	; 0x2f6a <__vfprintf>
    221a:	48 85       	ldd	r20, Y+8	; 0x08
    221c:	59 85       	ldd	r21, Y+9	; 0x09
    221e:	2e 81       	ldd	r18, Y+6	; 0x06
    2220:	3f 81       	ldd	r19, Y+7	; 0x07
    2222:	42 17       	cp	r20, r18
    2224:	53 07       	cpc	r21, r19
    2226:	08 f4       	brcc	.+2      	; 0x222a <__vsnprintf+0x7c>
    2228:	9a 01       	movw	r18, r20
    222a:	f7 01       	movw	r30, r14
    222c:	e2 0f       	add	r30, r18
    222e:	f3 1f       	adc	r31, r19
    2230:	10 82       	st	Z, r1
    2232:	61 96       	adiw	r28, 0x11	; 17
    2234:	0f b6       	in	r0, 0x3f	; 63
    2236:	f8 94       	cli
    2238:	de bf       	out	0x3e, r29	; 62
    223a:	0f be       	out	0x3f, r0	; 63
    223c:	cd bf       	out	0x3d, r28	; 61
    223e:	df 91       	pop	r29
    2240:	cf 91       	pop	r28
    2242:	1f 91       	pop	r17
    2244:	0f 91       	pop	r16
    2246:	ff 90       	pop	r15
    2248:	ef 90       	pop	r14
    224a:	8f 90       	pop	r8
    224c:	7f 90       	pop	r7
    224e:	6f 90       	pop	r6
    2250:	08 95       	ret

Disassembly of section .text.__strtoxll:

00000d40 <__strtoxll>:
     d40:	ac e1       	ldi	r26, 0x1C	; 28
     d42:	b0 e0       	ldi	r27, 0x00	; 0
     d44:	e6 ea       	ldi	r30, 0xA6	; 166
     d46:	f6 e0       	ldi	r31, 0x06	; 6
     d48:	0c 94 4d 17 	jmp	0x2e9a	; 0x2e9a <__prologue_saves__>
     d4c:	1b 01       	movw	r2, r22
     d4e:	48 2e       	mov	r4, r24
     d50:	59 87       	std	Y+9, r21	; 0x09
     d52:	48 87       	std	Y+8, r20	; 0x08
     d54:	3a 83       	std	Y+2, r19	; 0x02
     d56:	29 83       	std	Y+1, r18	; 0x01
     d58:	0a 8f       	std	Y+26, r16	; 0x1a
     d5a:	25 32       	cpi	r18, 0x25	; 37
     d5c:	31 05       	cpc	r19, r1
     d5e:	1c f4       	brge	.+6      	; 0xd66 <__strtoxll+0x26>
     d60:	21 30       	cpi	r18, 0x01	; 1
     d62:	31 05       	cpc	r19, r1
     d64:	39 f4       	brne	.+14     	; 0xd74 <__strtoxll+0x34>
     d66:	86 e1       	ldi	r24, 0x16	; 22
     d68:	90 e0       	ldi	r25, 0x00	; 0
     d6a:	90 93 e3 02 	sts	0x02E3, r25	; 0x8002e3 <__errno_val+0x1>
     d6e:	80 93 e2 02 	sts	0x02E2, r24	; 0x8002e2 <__errno_val>
     d72:	a4 c1       	rjmp	.+840    	; 0x10bc <__strtoxll+0x37c>
     d74:	61 15       	cp	r22, r1
     d76:	71 05       	cpc	r23, r1
     d78:	81 05       	cpc	r24, r1
     d7a:	09 f4       	brne	.+2      	; 0xd7e <__strtoxll+0x3e>
     d7c:	b8 c1       	rjmp	.+880    	; 0x10ee <__strtoxll+0x3ae>
     d7e:	fb 01       	movw	r30, r22
     d80:	14 91       	lpm	r17, Z
     d82:	47 fc       	sbrc	r4, 7
     d84:	10 81       	ld	r17, Z
     d86:	11 23       	and	r17, r17
     d88:	09 f4       	brne	.+2      	; 0xd8c <__strtoxll+0x4c>
     d8a:	98 c1       	rjmp	.+816    	; 0x10bc <__strtoxll+0x37c>
     d8c:	84 2c       	mov	r8, r4
     d8e:	31 01       	movw	r6, r2
     d90:	10 32       	cpi	r17, 0x20	; 32
     d92:	39 f0       	breq	.+14     	; 0xda2 <__strtoxll+0x62>
     d94:	81 2f       	mov	r24, r17
     d96:	01 2e       	mov	r0, r17
     d98:	00 0c       	add	r0, r0
     d9a:	99 0b       	sbc	r25, r25
     d9c:	09 97       	sbiw	r24, 0x09	; 9
     d9e:	05 97       	sbiw	r24, 0x05	; 5
     da0:	48 f4       	brcc	.+18     	; 0xdb4 <__strtoxll+0x74>
     da2:	ff ef       	ldi	r31, 0xFF	; 255
     da4:	6f 1a       	sub	r6, r31
     da6:	7f 0a       	sbc	r7, r31
     da8:	8f 0a       	sbc	r8, r31
     daa:	f3 01       	movw	r30, r6
     dac:	14 91       	lpm	r17, Z
     dae:	87 fc       	sbrc	r8, 7
     db0:	10 81       	ld	r17, Z
     db2:	ee cf       	rjmp	.-36     	; 0xd90 <__strtoxll+0x50>
     db4:	1d 32       	cpi	r17, 0x2D	; 45
     db6:	59 f4       	brne	.+22     	; 0xdce <__strtoxll+0x8e>
     db8:	2f ef       	ldi	r18, 0xFF	; 255
     dba:	62 1a       	sub	r6, r18
     dbc:	72 0a       	sbc	r7, r18
     dbe:	82 0a       	sbc	r8, r18
     dc0:	f3 01       	movw	r30, r6
     dc2:	14 91       	lpm	r17, Z
     dc4:	87 fc       	sbrc	r8, 7
     dc6:	10 81       	ld	r17, Z
     dc8:	31 e0       	ldi	r19, 0x01	; 1
     dca:	38 8b       	std	Y+16, r19	; 0x10
     dcc:	0b c0       	rjmp	.+22     	; 0xde4 <__strtoxll+0xa4>
     dce:	1b 32       	cpi	r17, 0x2B	; 43
     dd0:	41 f4       	brne	.+16     	; 0xde2 <__strtoxll+0xa2>
     dd2:	8f ef       	ldi	r24, 0xFF	; 255
     dd4:	68 1a       	sub	r6, r24
     dd6:	78 0a       	sbc	r7, r24
     dd8:	88 0a       	sbc	r8, r24
     dda:	f3 01       	movw	r30, r6
     ddc:	14 91       	lpm	r17, Z
     dde:	87 fc       	sbrc	r8, 7
     de0:	10 81       	ld	r17, Z
     de2:	18 8a       	std	Y+16, r1	; 0x10
     de4:	10 33       	cpi	r17, 0x30	; 48
     de6:	09 f0       	breq	.+2      	; 0xdea <__strtoxll+0xaa>
     de8:	52 c0       	rjmp	.+164    	; 0xe8e <__strtoxll+0x14e>
     dea:	e8 2c       	mov	r14, r8
     dec:	63 01       	movw	r12, r6
     dee:	9f ef       	ldi	r25, 0xFF	; 255
     df0:	c9 1a       	sub	r12, r25
     df2:	d9 0a       	sbc	r13, r25
     df4:	e9 0a       	sbc	r14, r25
     df6:	f6 01       	movw	r30, r12
     df8:	14 91       	lpm	r17, Z
     dfa:	e7 fc       	sbrc	r14, 7
     dfc:	10 81       	ld	r17, Z
     dfe:	89 81       	ldd	r24, Y+1	; 0x01
     e00:	9a 81       	ldd	r25, Y+2	; 0x02
     e02:	8f 7e       	andi	r24, 0xEF	; 239
     e04:	89 2b       	or	r24, r25
     e06:	09 f0       	breq	.+2      	; 0xe0a <__strtoxll+0xca>
     e08:	44 c0       	rjmp	.+136    	; 0xe92 <__strtoxll+0x152>
     e0a:	81 2f       	mov	r24, r17
     e0c:	8f 7d       	andi	r24, 0xDF	; 223
     e0e:	88 35       	cpi	r24, 0x58	; 88
     e10:	a9 f5       	brne	.+106    	; 0xe7c <__strtoxll+0x13c>
     e12:	e2 e0       	ldi	r30, 0x02	; 2
     e14:	6e 0e       	add	r6, r30
     e16:	71 1c       	adc	r7, r1
     e18:	81 1c       	adc	r8, r1
     e1a:	f3 01       	movw	r30, r6
     e1c:	14 91       	lpm	r17, Z
     e1e:	87 fc       	sbrc	r8, 7
     e20:	10 81       	ld	r17, Z
     e22:	81 2f       	mov	r24, r17
     e24:	80 62       	ori	r24, 0x20	; 32
     e26:	08 2e       	mov	r0, r24
     e28:	00 0c       	add	r0, r0
     e2a:	99 0b       	sbc	r25, r25
     e2c:	81 56       	subi	r24, 0x61	; 97
     e2e:	91 09       	sbc	r25, r1
     e30:	21 2f       	mov	r18, r17
     e32:	01 2e       	mov	r0, r17
     e34:	00 0c       	add	r0, r0
     e36:	33 0b       	sbc	r19, r19
     e38:	3a 83       	std	Y+2, r19	; 0x02
     e3a:	29 83       	std	Y+1, r18	; 0x01
     e3c:	4a 97       	sbiw	r24, 0x1a	; 26
     e3e:	38 f0       	brcs	.+14     	; 0xe4e <__strtoxll+0x10e>
     e40:	89 81       	ldd	r24, Y+1	; 0x01
     e42:	9a 81       	ldd	r25, Y+2	; 0x02
     e44:	0e 94 0e 18 	call	0x301c	; 0x301c <isalnum>
     e48:	89 2b       	or	r24, r25
     e4a:	41 f0       	breq	.+16     	; 0xe5c <__strtoxll+0x11c>
     e4c:	66 c1       	rjmp	.+716    	; 0x111a <__strtoxll+0x3da>
     e4e:	89 81       	ldd	r24, Y+1	; 0x01
     e50:	9a 81       	ldd	r25, Y+2	; 0x02
     e52:	0e 94 df 18 	call	0x31be	; 0x31be <toupper>
     e56:	87 53       	subi	r24, 0x37	; 55
     e58:	80 31       	cpi	r24, 0x10	; 16
     e5a:	94 f3       	brlt	.-28     	; 0xe40 <__strtoxll+0x100>
     e5c:	36 01       	movw	r6, r12
     e5e:	8e 2c       	mov	r8, r14
     e60:	88 85       	ldd	r24, Y+8	; 0x08
     e62:	99 85       	ldd	r25, Y+9	; 0x09
     e64:	89 2b       	or	r24, r25
     e66:	09 f0       	breq	.+2      	; 0xe6a <__strtoxll+0x12a>
     e68:	30 c1       	rjmp	.+608    	; 0x10ca <__strtoxll+0x38a>
     e6a:	1b 82       	std	Y+3, r1	; 0x03
     e6c:	51 2c       	mov	r5, r1
     e6e:	91 2c       	mov	r9, r1
     e70:	1c 8e       	std	Y+28, r1	; 0x1c
     e72:	1b 8e       	std	Y+27, r1	; 0x1b
     e74:	1c 82       	std	Y+4, r1	; 0x04
     e76:	1d 82       	std	Y+5, r1	; 0x05
     e78:	1e 82       	std	Y+6, r1	; 0x06
     e7a:	5f c1       	rjmp	.+702    	; 0x113a <__strtoxll+0x3fa>
     e7c:	e9 81       	ldd	r30, Y+1	; 0x01
     e7e:	fa 81       	ldd	r31, Y+2	; 0x02
     e80:	ef 2b       	or	r30, r31
     e82:	09 f4       	brne	.+2      	; 0xe86 <__strtoxll+0x146>
     e84:	52 c1       	rjmp	.+676    	; 0x112a <__strtoxll+0x3ea>
     e86:	36 01       	movw	r6, r12
     e88:	8e 2c       	mov	r8, r14
     e8a:	01 e0       	ldi	r16, 0x01	; 1
     e8c:	0d c0       	rjmp	.+26     	; 0xea8 <__strtoxll+0x168>
     e8e:	00 e0       	ldi	r16, 0x00	; 0
     e90:	03 c0       	rjmp	.+6      	; 0xe98 <__strtoxll+0x158>
     e92:	36 01       	movw	r6, r12
     e94:	8e 2c       	mov	r8, r14
     e96:	01 e0       	ldi	r16, 0x01	; 1
     e98:	29 81       	ldd	r18, Y+1	; 0x01
     e9a:	3a 81       	ldd	r19, Y+2	; 0x02
     e9c:	23 2b       	or	r18, r19
     e9e:	21 f4       	brne	.+8      	; 0xea8 <__strtoxll+0x168>
     ea0:	8a e0       	ldi	r24, 0x0A	; 10
     ea2:	90 e0       	ldi	r25, 0x00	; 0
     ea4:	9a 83       	std	Y+2, r25	; 0x02
     ea6:	89 83       	std	Y+1, r24	; 0x01
     ea8:	9a 8d       	ldd	r25, Y+26	; 0x1a
     eaa:	99 23       	and	r25, r25
     eac:	99 f0       	breq	.+38     	; 0xed4 <__strtoxll+0x194>
     eae:	e8 89       	ldd	r30, Y+16	; 0x10
     eb0:	e1 11       	cpse	r30, r1
     eb2:	1f c0       	rjmp	.+62     	; 0xef2 <__strtoxll+0x1b2>
     eb4:	ff ef       	ldi	r31, 0xFF	; 255
     eb6:	fa 8b       	std	Y+18, r31	; 0x12
     eb8:	2f ef       	ldi	r18, 0xFF	; 255
     eba:	2b 8b       	std	Y+19, r18	; 0x13
     ebc:	3f ef       	ldi	r19, 0xFF	; 255
     ebe:	3c 8b       	std	Y+20, r19	; 0x14
     ec0:	8f ef       	ldi	r24, 0xFF	; 255
     ec2:	8d 8b       	std	Y+21, r24	; 0x15
     ec4:	9f ef       	ldi	r25, 0xFF	; 255
     ec6:	9e 8b       	std	Y+22, r25	; 0x16
     ec8:	ef ef       	ldi	r30, 0xFF	; 255
     eca:	ef 8b       	std	Y+23, r30	; 0x17
     ecc:	f8 8f       	std	Y+24, r31	; 0x18
     ece:	2f e7       	ldi	r18, 0x7F	; 127
     ed0:	29 8f       	std	Y+25, r18	; 0x19
     ed2:	18 c0       	rjmp	.+48     	; 0xf04 <__strtoxll+0x1c4>
     ed4:	3f ef       	ldi	r19, 0xFF	; 255
     ed6:	3a 8b       	std	Y+18, r19	; 0x12
     ed8:	8f ef       	ldi	r24, 0xFF	; 255
     eda:	8b 8b       	std	Y+19, r24	; 0x13
     edc:	9f ef       	ldi	r25, 0xFF	; 255
     ede:	9c 8b       	std	Y+20, r25	; 0x14
     ee0:	ef ef       	ldi	r30, 0xFF	; 255
     ee2:	ed 8b       	std	Y+21, r30	; 0x15
     ee4:	ff ef       	ldi	r31, 0xFF	; 255
     ee6:	fe 8b       	std	Y+22, r31	; 0x16
     ee8:	2f ef       	ldi	r18, 0xFF	; 255
     eea:	2f 8b       	std	Y+23, r18	; 0x17
     eec:	38 8f       	std	Y+24, r19	; 0x18
     eee:	89 8f       	std	Y+25, r24	; 0x19
     ef0:	09 c0       	rjmp	.+18     	; 0xf04 <__strtoxll+0x1c4>
     ef2:	1a 8a       	std	Y+18, r1	; 0x12
     ef4:	1b 8a       	std	Y+19, r1	; 0x13
     ef6:	1c 8a       	std	Y+20, r1	; 0x14
     ef8:	1d 8a       	std	Y+21, r1	; 0x15
     efa:	1e 8a       	std	Y+22, r1	; 0x16
     efc:	1f 8a       	std	Y+23, r1	; 0x17
     efe:	18 8e       	std	Y+24, r1	; 0x18
     f00:	90 e8       	ldi	r25, 0x80	; 128
     f02:	99 8f       	std	Y+25, r25	; 0x19
     f04:	19 8a       	std	Y+17, r1	; 0x11
     f06:	1b 82       	std	Y+3, r1	; 0x03
     f08:	51 2c       	mov	r5, r1
     f0a:	91 2c       	mov	r9, r1
     f0c:	1c 8e       	std	Y+28, r1	; 0x1c
     f0e:	1b 8e       	std	Y+27, r1	; 0x1b
     f10:	1c 82       	std	Y+4, r1	; 0x04
     f12:	1d 82       	std	Y+5, r1	; 0x05
     f14:	1e 82       	std	Y+6, r1	; 0x06
     f16:	ea 81       	ldd	r30, Y+2	; 0x02
     f18:	ee 0f       	add	r30, r30
     f1a:	ee 0b       	sbc	r30, r30
     f1c:	ea 87       	std	Y+10, r30	; 0x0a
     f1e:	21 2f       	mov	r18, r17
     f20:	20 62       	ori	r18, 0x20	; 32
     f22:	02 2e       	mov	r0, r18
     f24:	00 0c       	add	r0, r0
     f26:	33 0b       	sbc	r19, r19
     f28:	21 56       	subi	r18, 0x61	; 97
     f2a:	31 09       	sbc	r19, r1
     f2c:	81 2f       	mov	r24, r17
     f2e:	01 2e       	mov	r0, r17
     f30:	00 0c       	add	r0, r0
     f32:	99 0b       	sbc	r25, r25
     f34:	2a 31       	cpi	r18, 0x1A	; 26
     f36:	31 05       	cpc	r19, r1
     f38:	28 f4       	brcc	.+10     	; 0xf44 <__strtoxll+0x204>
     f3a:	0e 94 df 18 	call	0x31be	; 0x31be <toupper>
     f3e:	87 53       	subi	r24, 0x37	; 55
     f40:	8f 83       	std	Y+7, r24	; 0x07
     f42:	06 c0       	rjmp	.+12     	; 0xf50 <__strtoxll+0x210>
     f44:	c0 97       	sbiw	r24, 0x30	; 48
     f46:	0a 97       	sbiw	r24, 0x0a	; 10
     f48:	08 f0       	brcs	.+2      	; 0xf4c <__strtoxll+0x20c>
     f4a:	96 c0       	rjmp	.+300    	; 0x1078 <__strtoxll+0x338>
     f4c:	10 53       	subi	r17, 0x30	; 48
     f4e:	1f 83       	std	Y+7, r17	; 0x07
     f50:	ff 81       	ldd	r31, Y+7	; 0x07
     f52:	8f 2f       	mov	r24, r31
     f54:	ff 0f       	add	r31, r31
     f56:	99 0b       	sbc	r25, r25
     f58:	29 81       	ldd	r18, Y+1	; 0x01
     f5a:	3a 81       	ldd	r19, Y+2	; 0x02
     f5c:	82 17       	cp	r24, r18
     f5e:	93 07       	cpc	r25, r19
     f60:	0c f0       	brlt	.+2      	; 0xf64 <__strtoxll+0x224>
     f62:	8a c0       	rjmp	.+276    	; 0x1078 <__strtoxll+0x338>
     f64:	39 89       	ldd	r19, Y+17	; 0x11
     f66:	31 11       	cpse	r19, r1
     f68:	63 c0       	rjmp	.+198    	; 0x1030 <__strtoxll+0x2f0>
     f6a:	ab 80       	ldd	r10, Y+3	; 0x03
     f6c:	b5 2c       	mov	r11, r5
     f6e:	c9 2c       	mov	r12, r9
     f70:	dc 8c       	ldd	r13, Y+28	; 0x1c
     f72:	eb 8c       	ldd	r14, Y+27	; 0x1b
     f74:	fc 80       	ldd	r15, Y+4	; 0x04
     f76:	0d 81       	ldd	r16, Y+5	; 0x05
     f78:	1e 81       	ldd	r17, Y+6	; 0x06
     f7a:	29 81       	ldd	r18, Y+1	; 0x01
     f7c:	3a 81       	ldd	r19, Y+2	; 0x02
     f7e:	4a 85       	ldd	r20, Y+10	; 0x0a
     f80:	54 2f       	mov	r21, r20
     f82:	64 2f       	mov	r22, r20
     f84:	74 2f       	mov	r23, r20
     f86:	84 2f       	mov	r24, r20
     f88:	94 2f       	mov	r25, r20
     f8a:	0e 94 7a 11 	call	0x22f4	; 0x22f4 <__muldi3>
     f8e:	59 01       	movw	r10, r18
     f90:	6a 01       	movw	r12, r20
     f92:	7b 01       	movw	r14, r22
     f94:	8c 01       	movw	r16, r24
     f96:	9f 81       	ldd	r25, Y+7	; 0x07
     f98:	99 0f       	add	r25, r25
     f9a:	99 0b       	sbc	r25, r25
     f9c:	2f 81       	ldd	r18, Y+7	; 0x07
     f9e:	39 2f       	mov	r19, r25
     fa0:	49 2f       	mov	r20, r25
     fa2:	59 2f       	mov	r21, r25
     fa4:	69 2f       	mov	r22, r25
     fa6:	79 2f       	mov	r23, r25
     fa8:	89 2f       	mov	r24, r25
     faa:	0e 94 f1 18 	call	0x31e2	; 0x31e2 <__adddi3>
     fae:	2f 83       	std	Y+7, r18	; 0x07
     fb0:	3b 87       	std	Y+11, r19	; 0x0b
     fb2:	4c 87       	std	Y+12, r20	; 0x0c
     fb4:	5d 87       	std	Y+13, r21	; 0x0d
     fb6:	6e 87       	std	Y+14, r22	; 0x0e
     fb8:	7f 87       	std	Y+15, r23	; 0x0f
     fba:	b8 2f       	mov	r27, r24
     fbc:	a9 2f       	mov	r26, r25
     fbe:	2b 81       	ldd	r18, Y+3	; 0x03
     fc0:	35 2d       	mov	r19, r5
     fc2:	49 2d       	mov	r20, r9
     fc4:	5c 8d       	ldd	r21, Y+28	; 0x1c
     fc6:	6b 8d       	ldd	r22, Y+27	; 0x1b
     fc8:	7c 81       	ldd	r23, Y+4	; 0x04
     fca:	8d 81       	ldd	r24, Y+5	; 0x05
     fcc:	9e 81       	ldd	r25, Y+6	; 0x06
     fce:	af 80       	ldd	r10, Y+7	; 0x07
     fd0:	bb 84       	ldd	r11, Y+11	; 0x0b
     fd2:	cc 84       	ldd	r12, Y+12	; 0x0c
     fd4:	dd 84       	ldd	r13, Y+13	; 0x0d
     fd6:	ee 84       	ldd	r14, Y+14	; 0x0e
     fd8:	ff 84       	ldd	r15, Y+15	; 0x0f
     fda:	0b 2f       	mov	r16, r27
     fdc:	1a 2f       	mov	r17, r26
     fde:	0e 94 fa 18 	call	0x31f4	; 0x31f4 <__cmpdi2>
     fe2:	09 f0       	breq	.+2      	; 0xfe6 <__strtoxll+0x2a6>
     fe4:	70 f4       	brcc	.+28     	; 0x1002 <__strtoxll+0x2c2>
     fe6:	8a 8d       	ldd	r24, Y+26	; 0x1a
     fe8:	88 23       	and	r24, r24
     fea:	81 f1       	breq	.+96     	; 0x104c <__strtoxll+0x30c>
     fec:	2a 89       	ldd	r18, Y+18	; 0x12
     fee:	3b 89       	ldd	r19, Y+19	; 0x13
     ff0:	4c 89       	ldd	r20, Y+20	; 0x14
     ff2:	5d 89       	ldd	r21, Y+21	; 0x15
     ff4:	6e 89       	ldd	r22, Y+22	; 0x16
     ff6:	7f 89       	ldd	r23, Y+23	; 0x17
     ff8:	88 8d       	ldd	r24, Y+24	; 0x18
     ffa:	99 8d       	ldd	r25, Y+25	; 0x19
     ffc:	0e 94 fa 18 	call	0x31f4	; 0x31f4 <__cmpdi2>
    1000:	28 f5       	brcc	.+74     	; 0x104c <__strtoxll+0x30c>
    1002:	e2 e2       	ldi	r30, 0x22	; 34
    1004:	f0 e0       	ldi	r31, 0x00	; 0
    1006:	f0 93 e3 02 	sts	0x02E3, r31	; 0x8002e3 <__errno_val+0x1>
    100a:	e0 93 e2 02 	sts	0x02E2, r30	; 0x8002e2 <__errno_val>
    100e:	fa 89       	ldd	r31, Y+18	; 0x12
    1010:	ff 83       	std	Y+7, r31	; 0x07
    1012:	2b 89       	ldd	r18, Y+19	; 0x13
    1014:	2b 87       	std	Y+11, r18	; 0x0b
    1016:	3c 89       	ldd	r19, Y+20	; 0x14
    1018:	3c 87       	std	Y+12, r19	; 0x0c
    101a:	8d 89       	ldd	r24, Y+21	; 0x15
    101c:	8d 87       	std	Y+13, r24	; 0x0d
    101e:	9e 89       	ldd	r25, Y+22	; 0x16
    1020:	9e 87       	std	Y+14, r25	; 0x0e
    1022:	ef 89       	ldd	r30, Y+23	; 0x17
    1024:	ef 87       	std	Y+15, r30	; 0x0f
    1026:	b8 8d       	ldd	r27, Y+24	; 0x18
    1028:	a9 8d       	ldd	r26, Y+25	; 0x19
    102a:	f1 e0       	ldi	r31, 0x01	; 1
    102c:	f9 8b       	std	Y+17, r31	; 0x11
    102e:	0e c0       	rjmp	.+28     	; 0x104c <__strtoxll+0x30c>
    1030:	2b 81       	ldd	r18, Y+3	; 0x03
    1032:	2f 83       	std	Y+7, r18	; 0x07
    1034:	5b 86       	std	Y+11, r5	; 0x0b
    1036:	9c 86       	std	Y+12, r9	; 0x0c
    1038:	3c 8d       	ldd	r19, Y+28	; 0x1c
    103a:	3d 87       	std	Y+13, r19	; 0x0d
    103c:	8b 8d       	ldd	r24, Y+27	; 0x1b
    103e:	8e 87       	std	Y+14, r24	; 0x0e
    1040:	9c 81       	ldd	r25, Y+4	; 0x04
    1042:	9f 87       	std	Y+15, r25	; 0x0f
    1044:	bd 81       	ldd	r27, Y+5	; 0x05
    1046:	ae 81       	ldd	r26, Y+6	; 0x06
    1048:	e1 e0       	ldi	r30, 0x01	; 1
    104a:	e9 8b       	std	Y+17, r30	; 0x11
    104c:	ff ef       	ldi	r31, 0xFF	; 255
    104e:	6f 1a       	sub	r6, r31
    1050:	7f 0a       	sbc	r7, r31
    1052:	8f 0a       	sbc	r8, r31
    1054:	f3 01       	movw	r30, r6
    1056:	14 91       	lpm	r17, Z
    1058:	87 fc       	sbrc	r8, 7
    105a:	10 81       	ld	r17, Z
    105c:	01 e0       	ldi	r16, 0x01	; 1
    105e:	2f 81       	ldd	r18, Y+7	; 0x07
    1060:	2b 83       	std	Y+3, r18	; 0x03
    1062:	5b 84       	ldd	r5, Y+11	; 0x0b
    1064:	9c 84       	ldd	r9, Y+12	; 0x0c
    1066:	3d 85       	ldd	r19, Y+13	; 0x0d
    1068:	3c 8f       	std	Y+28, r19	; 0x1c
    106a:	8e 85       	ldd	r24, Y+14	; 0x0e
    106c:	8b 8f       	std	Y+27, r24	; 0x1b
    106e:	9f 85       	ldd	r25, Y+15	; 0x0f
    1070:	9c 83       	std	Y+4, r25	; 0x04
    1072:	bd 83       	std	Y+5, r27	; 0x05
    1074:	ae 83       	std	Y+6, r26	; 0x06
    1076:	53 cf       	rjmp	.-346    	; 0xf1e <__strtoxll+0x1de>
    1078:	e9 89       	ldd	r30, Y+17	; 0x11
    107a:	e1 11       	cpse	r30, r1
    107c:	15 c0       	rjmp	.+42     	; 0x10a8 <__strtoxll+0x368>
    107e:	f8 89       	ldd	r31, Y+16	; 0x10
    1080:	ff 23       	and	r31, r31
    1082:	91 f0       	breq	.+36     	; 0x10a8 <__strtoxll+0x368>
    1084:	2b 81       	ldd	r18, Y+3	; 0x03
    1086:	35 2d       	mov	r19, r5
    1088:	49 2d       	mov	r20, r9
    108a:	5c 8d       	ldd	r21, Y+28	; 0x1c
    108c:	6b 8d       	ldd	r22, Y+27	; 0x1b
    108e:	7c 81       	ldd	r23, Y+4	; 0x04
    1090:	8d 81       	ldd	r24, Y+5	; 0x05
    1092:	9e 81       	ldd	r25, Y+6	; 0x06
    1094:	0e 94 6a 18 	call	0x30d4	; 0x30d4 <__negdi2>
    1098:	2b 83       	std	Y+3, r18	; 0x03
    109a:	53 2e       	mov	r5, r19
    109c:	94 2e       	mov	r9, r20
    109e:	5c 8f       	std	Y+28, r21	; 0x1c
    10a0:	6b 8f       	std	Y+27, r22	; 0x1b
    10a2:	7c 83       	std	Y+4, r23	; 0x04
    10a4:	8d 83       	std	Y+5, r24	; 0x05
    10a6:	9e 83       	std	Y+6, r25	; 0x06
    10a8:	28 85       	ldd	r18, Y+8	; 0x08
    10aa:	39 85       	ldd	r19, Y+9	; 0x09
    10ac:	23 2b       	or	r18, r19
    10ae:	09 f4       	brne	.+2      	; 0x10b2 <__strtoxll+0x372>
    10b0:	44 c0       	rjmp	.+136    	; 0x113a <__strtoxll+0x3fa>
    10b2:	01 11       	cpse	r16, r1
    10b4:	12 c0       	rjmp	.+36     	; 0x10da <__strtoxll+0x39a>
    10b6:	84 2c       	mov	r8, r4
    10b8:	31 01       	movw	r6, r2
    10ba:	0f c0       	rjmp	.+30     	; 0x10da <__strtoxll+0x39a>
    10bc:	e8 85       	ldd	r30, Y+8	; 0x08
    10be:	f9 85       	ldd	r31, Y+9	; 0x09
    10c0:	ef 2b       	or	r30, r31
    10c2:	09 f4       	brne	.+2      	; 0x10c6 <__strtoxll+0x386>
    10c4:	d2 ce       	rjmp	.-604    	; 0xe6a <__strtoxll+0x12a>
    10c6:	84 2c       	mov	r8, r4
    10c8:	31 01       	movw	r6, r2
    10ca:	1b 82       	std	Y+3, r1	; 0x03
    10cc:	51 2c       	mov	r5, r1
    10ce:	91 2c       	mov	r9, r1
    10d0:	1c 8e       	std	Y+28, r1	; 0x1c
    10d2:	1b 8e       	std	Y+27, r1	; 0x1b
    10d4:	1c 82       	std	Y+4, r1	; 0x04
    10d6:	1d 82       	std	Y+5, r1	; 0x05
    10d8:	1e 82       	std	Y+6, r1	; 0x06
    10da:	a4 2d       	mov	r26, r4
    10dc:	c1 01       	movw	r24, r2
    10de:	b0 e0       	ldi	r27, 0x00	; 0
    10e0:	a7 ff       	sbrs	r26, 7
    10e2:	15 c0       	rjmp	.+42     	; 0x110e <__strtoxll+0x3ce>
    10e4:	e8 85       	ldd	r30, Y+8	; 0x08
    10e6:	f9 85       	ldd	r31, Y+9	; 0x09
    10e8:	71 82       	std	Z+1, r7	; 0x01
    10ea:	60 82       	st	Z, r6
    10ec:	26 c0       	rjmp	.+76     	; 0x113a <__strtoxll+0x3fa>
    10ee:	28 85       	ldd	r18, Y+8	; 0x08
    10f0:	39 85       	ldd	r19, Y+9	; 0x09
    10f2:	23 2b       	or	r18, r19
    10f4:	09 f4       	brne	.+2      	; 0x10f8 <__strtoxll+0x3b8>
    10f6:	b9 ce       	rjmp	.-654    	; 0xe6a <__strtoxll+0x12a>
    10f8:	61 2c       	mov	r6, r1
    10fa:	71 2c       	mov	r7, r1
    10fc:	81 2c       	mov	r8, r1
    10fe:	1b 82       	std	Y+3, r1	; 0x03
    1100:	51 2c       	mov	r5, r1
    1102:	91 2c       	mov	r9, r1
    1104:	1c 8e       	std	Y+28, r1	; 0x1c
    1106:	1b 8e       	std	Y+27, r1	; 0x1b
    1108:	1c 82       	std	Y+4, r1	; 0x04
    110a:	1d 82       	std	Y+5, r1	; 0x05
    110c:	1e 82       	std	Y+6, r1	; 0x06
    110e:	e8 85       	ldd	r30, Y+8	; 0x08
    1110:	f9 85       	ldd	r31, Y+9	; 0x09
    1112:	60 82       	st	Z, r6
    1114:	71 82       	std	Z+1, r7	; 0x01
    1116:	82 82       	std	Z+2, r8	; 0x02
    1118:	10 c0       	rjmp	.+32     	; 0x113a <__strtoxll+0x3fa>
    111a:	e8 2c       	mov	r14, r8
    111c:	63 01       	movw	r12, r6
    111e:	00 e0       	ldi	r16, 0x00	; 0
    1120:	20 e1       	ldi	r18, 0x10	; 16
    1122:	30 e0       	ldi	r19, 0x00	; 0
    1124:	3a 83       	std	Y+2, r19	; 0x02
    1126:	29 83       	std	Y+1, r18	; 0x01
    1128:	05 c0       	rjmp	.+10     	; 0x1134 <__strtoxll+0x3f4>
    112a:	01 e0       	ldi	r16, 0x01	; 1
    112c:	88 e0       	ldi	r24, 0x08	; 8
    112e:	90 e0       	ldi	r25, 0x00	; 0
    1130:	9a 83       	std	Y+2, r25	; 0x02
    1132:	89 83       	std	Y+1, r24	; 0x01
    1134:	36 01       	movw	r6, r12
    1136:	8e 2c       	mov	r8, r14
    1138:	b7 ce       	rjmp	.-658    	; 0xea8 <__strtoxll+0x168>
    113a:	2b 81       	ldd	r18, Y+3	; 0x03
    113c:	35 2d       	mov	r19, r5
    113e:	49 2d       	mov	r20, r9
    1140:	5c 8d       	ldd	r21, Y+28	; 0x1c
    1142:	6b 8d       	ldd	r22, Y+27	; 0x1b
    1144:	7c 81       	ldd	r23, Y+4	; 0x04
    1146:	8d 81       	ldd	r24, Y+5	; 0x05
    1148:	9e 81       	ldd	r25, Y+6	; 0x06
    114a:	6c 96       	adiw	r28, 0x1c	; 28
    114c:	e2 e1       	ldi	r30, 0x12	; 18
    114e:	0c 94 69 17 	jmp	0x2ed2	; 0x2ed2 <__epilogue_restores__>

Disassembly of section .text.isalnum:

0000301c <isalnum>:
    301c:	9c 01       	movw	r18, r24
    301e:	20 62       	ori	r18, 0x20	; 32
    3020:	21 56       	subi	r18, 0x61	; 97
    3022:	31 09       	sbc	r19, r1
    3024:	2a 31       	cpi	r18, 0x1A	; 26
    3026:	31 05       	cpc	r19, r1
    3028:	50 f0       	brcs	.+20     	; 0x303e <isalnum+0x22>
    302a:	9c 01       	movw	r18, r24
    302c:	20 53       	subi	r18, 0x30	; 48
    302e:	31 09       	sbc	r19, r1
    3030:	81 e0       	ldi	r24, 0x01	; 1
    3032:	90 e0       	ldi	r25, 0x00	; 0
    3034:	2a 30       	cpi	r18, 0x0A	; 10
    3036:	31 05       	cpc	r19, r1
    3038:	20 f0       	brcs	.+8      	; 0x3042 <isalnum+0x26>
    303a:	80 e0       	ldi	r24, 0x00	; 0
    303c:	08 95       	ret
    303e:	81 e0       	ldi	r24, 0x01	; 1
    3040:	90 e0       	ldi	r25, 0x00	; 0
    3042:	08 95       	ret

Disassembly of section .text.__vfprintf:

00002f6a <__vfprintf>:
    2f6a:	a2 e0       	ldi	r26, 0x02	; 2
    2f6c:	b0 e0       	ldi	r27, 0x00	; 0
    2f6e:	eb eb       	ldi	r30, 0xBB	; 187
    2f70:	f7 e1       	ldi	r31, 0x17	; 23
    2f72:	0c 94 5b 17 	jmp	0x2eb6	; 0x2eb6 <__prologue_saves__+0x1c>
    2f76:	8c 01       	movw	r16, r24
    2f78:	3a 83       	std	Y+2, r19	; 0x02
    2f7a:	29 83       	std	Y+1, r18	; 0x01
    2f7c:	9e 01       	movw	r18, r28
    2f7e:	2f 5f       	subi	r18, 0xFF	; 255
    2f80:	3f 4f       	sbci	r19, 0xFF	; 255
    2f82:	0e 94 83 14 	call	0x2906	; 0x2906 <__printf_core>
    2f86:	f8 01       	movw	r30, r16
    2f88:	20 81       	ld	r18, Z
    2f8a:	24 ff       	sbrs	r18, 4
    2f8c:	02 c0       	rjmp	.+4      	; 0x2f92 <__vfprintf+0x28>
    2f8e:	8f ef       	ldi	r24, 0xFF	; 255
    2f90:	9f ef       	ldi	r25, 0xFF	; 255
    2f92:	22 96       	adiw	r28, 0x02	; 2
    2f94:	e4 e0       	ldi	r30, 0x04	; 4
    2f96:	0c 94 77 17 	jmp	0x2eee	; 0x2eee <__epilogue_restores__+0x1c>

Disassembly of section .text.libgcc.div:

00002d98 <__udivmodsi4>:
    2d98:	a1 e2       	ldi	r26, 0x21	; 33
    2d9a:	1a 2e       	mov	r1, r26
    2d9c:	aa 1b       	sub	r26, r26
    2d9e:	bb 1b       	sub	r27, r27
    2da0:	fd 01       	movw	r30, r26
    2da2:	0d c0       	rjmp	.+26     	; 0x2dbe <__udivmodsi4_ep>

00002da4 <__udivmodsi4_loop>:
    2da4:	aa 1f       	adc	r26, r26
    2da6:	bb 1f       	adc	r27, r27
    2da8:	ee 1f       	adc	r30, r30
    2daa:	ff 1f       	adc	r31, r31
    2dac:	a2 17       	cp	r26, r18
    2dae:	b3 07       	cpc	r27, r19
    2db0:	e4 07       	cpc	r30, r20
    2db2:	f5 07       	cpc	r31, r21
    2db4:	20 f0       	brcs	.+8      	; 0x2dbe <__udivmodsi4_ep>
    2db6:	a2 1b       	sub	r26, r18
    2db8:	b3 0b       	sbc	r27, r19
    2dba:	e4 0b       	sbc	r30, r20
    2dbc:	f5 0b       	sbc	r31, r21

00002dbe <__udivmodsi4_ep>:
    2dbe:	66 1f       	adc	r22, r22
    2dc0:	77 1f       	adc	r23, r23
    2dc2:	88 1f       	adc	r24, r24
    2dc4:	99 1f       	adc	r25, r25
    2dc6:	1a 94       	dec	r1
    2dc8:	69 f7       	brne	.-38     	; 0x2da4 <__udivmodsi4_loop>
    2dca:	60 95       	com	r22
    2dcc:	70 95       	com	r23
    2dce:	80 95       	com	r24
    2dd0:	90 95       	com	r25
    2dd2:	9b 01       	movw	r18, r22
    2dd4:	ac 01       	movw	r20, r24
    2dd6:	bd 01       	movw	r22, r26
    2dd8:	cf 01       	movw	r24, r30
    2dda:	08 95       	ret

Disassembly of section .text.libgcc.mul:

000022f4 <__muldi3>:
    22f4:	df 93       	push	r29
    22f6:	cf 93       	push	r28
    22f8:	1f 93       	push	r17
    22fa:	0f 93       	push	r16
    22fc:	9a 9d       	mul	r25, r10
    22fe:	f0 2d       	mov	r31, r0
    2300:	21 9f       	mul	r18, r17
    2302:	f0 0d       	add	r31, r0
    2304:	8b 9d       	mul	r24, r11
    2306:	f0 0d       	add	r31, r0
    2308:	8a 9d       	mul	r24, r10
    230a:	e0 2d       	mov	r30, r0
    230c:	f1 0d       	add	r31, r1
    230e:	03 9f       	mul	r16, r19
    2310:	f0 0d       	add	r31, r0
    2312:	02 9f       	mul	r16, r18
    2314:	e0 0d       	add	r30, r0
    2316:	f1 1d       	adc	r31, r1
    2318:	4e 9d       	mul	r20, r14
    231a:	e0 0d       	add	r30, r0
    231c:	f1 1d       	adc	r31, r1
    231e:	5e 9d       	mul	r21, r14
    2320:	f0 0d       	add	r31, r0
    2322:	4f 9d       	mul	r20, r15
    2324:	f0 0d       	add	r31, r0
    2326:	7f 93       	push	r23
    2328:	6f 93       	push	r22
    232a:	bf 92       	push	r11
    232c:	af 92       	push	r10
    232e:	5f 93       	push	r21
    2330:	4f 93       	push	r20
    2332:	d5 01       	movw	r26, r10
    2334:	0e 94 7a 18 	call	0x30f4	; 0x30f4 <__umulhisi3>
    2338:	8b 01       	movw	r16, r22
    233a:	ac 01       	movw	r20, r24
    233c:	d7 01       	movw	r26, r14
    233e:	0e 94 7a 18 	call	0x30f4	; 0x30f4 <__umulhisi3>
    2342:	eb 01       	movw	r28, r22
    2344:	e8 0f       	add	r30, r24
    2346:	f9 1f       	adc	r31, r25
    2348:	d6 01       	movw	r26, r12
    234a:	0e 94 e8 18 	call	0x31d0	; 0x31d0 <__muldi3_6>
    234e:	2f 91       	pop	r18
    2350:	3f 91       	pop	r19
    2352:	d6 01       	movw	r26, r12
    2354:	0e 94 7a 18 	call	0x30f4	; 0x30f4 <__umulhisi3>
    2358:	c6 0f       	add	r28, r22
    235a:	d7 1f       	adc	r29, r23
    235c:	e8 1f       	adc	r30, r24
    235e:	f9 1f       	adc	r31, r25
    2360:	af 91       	pop	r26
    2362:	bf 91       	pop	r27
    2364:	0e 94 e8 18 	call	0x31d0	; 0x31d0 <__muldi3_6>
    2368:	2f 91       	pop	r18
    236a:	3f 91       	pop	r19
    236c:	0e 94 7a 18 	call	0x30f4	; 0x30f4 <__umulhisi3>
    2370:	c6 0f       	add	r28, r22
    2372:	d7 1f       	adc	r29, r23
    2374:	e8 1f       	adc	r30, r24
    2376:	f9 1f       	adc	r31, r25
    2378:	d6 01       	movw	r26, r12
    237a:	0e 94 7a 18 	call	0x30f4	; 0x30f4 <__umulhisi3>
    237e:	e6 0f       	add	r30, r22
    2380:	f7 1f       	adc	r31, r23
    2382:	98 01       	movw	r18, r16
    2384:	be 01       	movw	r22, r28
    2386:	cf 01       	movw	r24, r30
    2388:	11 24       	eor	r1, r1
    238a:	0f 91       	pop	r16
    238c:	1f 91       	pop	r17
    238e:	cf 91       	pop	r28
    2390:	df 91       	pop	r29
    2392:	08 95       	ret

Disassembly of section .text.libgcc.mul:

000031d0 <__muldi3_6>:
    31d0:	0e 94 7a 18 	call	0x30f4	; 0x30f4 <__umulhisi3>
    31d4:	46 0f       	add	r20, r22
    31d6:	57 1f       	adc	r21, r23
    31d8:	c8 1f       	adc	r28, r24
    31da:	d9 1f       	adc	r29, r25
    31dc:	08 f4       	brcc	.+2      	; 0x31e0 <__muldi3_6+0x10>
    31de:	31 96       	adiw	r30, 0x01	; 1
    31e0:	08 95       	ret

Disassembly of section .text.libgcc:

000030d4 <__negdi2>:
    30d4:	60 95       	com	r22
    30d6:	70 95       	com	r23
    30d8:	80 95       	com	r24
    30da:	90 95       	com	r25
    30dc:	30 95       	com	r19
    30de:	40 95       	com	r20
    30e0:	50 95       	com	r21
    30e2:	21 95       	neg	r18
    30e4:	3f 4f       	sbci	r19, 0xFF	; 255
    30e6:	4f 4f       	sbci	r20, 0xFF	; 255
    30e8:	5f 4f       	sbci	r21, 0xFF	; 255
    30ea:	6f 4f       	sbci	r22, 0xFF	; 255
    30ec:	7f 4f       	sbci	r23, 0xFF	; 255
    30ee:	8f 4f       	sbci	r24, 0xFF	; 255
    30f0:	9f 4f       	sbci	r25, 0xFF	; 255
    30f2:	08 95       	ret

Disassembly of section .text.libgcc.prologue:

00002e9a <__prologue_saves__>:
    2e9a:	2f 92       	push	r2
    2e9c:	3f 92       	push	r3
    2e9e:	4f 92       	push	r4
    2ea0:	5f 92       	push	r5
    2ea2:	6f 92       	push	r6
    2ea4:	7f 92       	push	r7
    2ea6:	8f 92       	push	r8
    2ea8:	9f 92       	push	r9
    2eaa:	af 92       	push	r10
    2eac:	bf 92       	push	r11
    2eae:	cf 92       	push	r12
    2eb0:	df 92       	push	r13
    2eb2:	ef 92       	push	r14
    2eb4:	ff 92       	push	r15
    2eb6:	0f 93       	push	r16
    2eb8:	1f 93       	push	r17
    2eba:	cf 93       	push	r28
    2ebc:	df 93       	push	r29
    2ebe:	cd b7       	in	r28, 0x3d	; 61
    2ec0:	de b7       	in	r29, 0x3e	; 62
    2ec2:	ca 1b       	sub	r28, r26
    2ec4:	db 0b       	sbc	r29, r27
    2ec6:	0f b6       	in	r0, 0x3f	; 63
    2ec8:	f8 94       	cli
    2eca:	de bf       	out	0x3e, r29	; 62
    2ecc:	0f be       	out	0x3f, r0	; 63
    2ece:	cd bf       	out	0x3d, r28	; 61
    2ed0:	09 94       	ijmp

Disassembly of section .text.libgcc.prologue:

00002ed2 <__epilogue_restores__>:
    2ed2:	2a 88       	ldd	r2, Y+18	; 0x12
    2ed4:	39 88       	ldd	r3, Y+17	; 0x11
    2ed6:	48 88       	ldd	r4, Y+16	; 0x10
    2ed8:	5f 84       	ldd	r5, Y+15	; 0x0f
    2eda:	6e 84       	ldd	r6, Y+14	; 0x0e
    2edc:	7d 84       	ldd	r7, Y+13	; 0x0d
    2ede:	8c 84       	ldd	r8, Y+12	; 0x0c
    2ee0:	9b 84       	ldd	r9, Y+11	; 0x0b
    2ee2:	aa 84       	ldd	r10, Y+10	; 0x0a
    2ee4:	b9 84       	ldd	r11, Y+9	; 0x09
    2ee6:	c8 84       	ldd	r12, Y+8	; 0x08
    2ee8:	df 80       	ldd	r13, Y+7	; 0x07
    2eea:	ee 80       	ldd	r14, Y+6	; 0x06
    2eec:	fd 80       	ldd	r15, Y+5	; 0x05
    2eee:	0c 81       	ldd	r16, Y+4	; 0x04
    2ef0:	1b 81       	ldd	r17, Y+3	; 0x03
    2ef2:	aa 81       	ldd	r26, Y+2	; 0x02
    2ef4:	b9 81       	ldd	r27, Y+1	; 0x01
    2ef6:	ce 0f       	add	r28, r30
    2ef8:	d1 1d       	adc	r29, r1
    2efa:	0f b6       	in	r0, 0x3f	; 63
    2efc:	f8 94       	cli
    2efe:	de bf       	out	0x3e, r29	; 62
    2f00:	0f be       	out	0x3f, r0	; 63
    2f02:	cd bf       	out	0x3d, r28	; 61
    2f04:	ed 01       	movw	r28, r26
    2f06:	08 95       	ret

Disassembly of section .text.libgcc:

000031e2 <__adddi3>:
    31e2:	2a 0d       	add	r18, r10
    31e4:	3b 1d       	adc	r19, r11
    31e6:	4c 1d       	adc	r20, r12
    31e8:	5d 1d       	adc	r21, r13
    31ea:	6e 1d       	adc	r22, r14
    31ec:	7f 1d       	adc	r23, r15
    31ee:	80 1f       	adc	r24, r16
    31f0:	91 1f       	adc	r25, r17
    31f2:	08 95       	ret

Disassembly of section .text.libgcc:

000031f4 <__cmpdi2>:
    31f4:	2a 15       	cp	r18, r10
    31f6:	3b 05       	cpc	r19, r11
    31f8:	4c 05       	cpc	r20, r12
    31fa:	5d 05       	cpc	r21, r13
    31fc:	6e 05       	cpc	r22, r14
    31fe:	7f 05       	cpc	r23, r15
    3200:	80 07       	cpc	r24, r16
    3202:	91 07       	cpc	r25, r17
    3204:	08 95       	ret

Disassembly of section .text.libgcc.mul:

000030f4 <__umulhisi3>:
    30f4:	a2 9f       	mul	r26, r18
    30f6:	b0 01       	movw	r22, r0
    30f8:	b3 9f       	mul	r27, r19
    30fa:	c0 01       	movw	r24, r0
    30fc:	a3 9f       	mul	r26, r19
    30fe:	70 0d       	add	r23, r0
    3100:	81 1d       	adc	r24, r1
    3102:	11 24       	eor	r1, r1
    3104:	91 1d       	adc	r25, r1
    3106:	b2 9f       	mul	r27, r18
    3108:	70 0d       	add	r23, r0
    310a:	81 1d       	adc	r24, r1
    310c:	11 24       	eor	r1, r1
    310e:	91 1d       	adc	r25, r1
    3110:	08 95       	ret
